Component: ARM Compiler 5.06 update 5 (build 528) Tool: armlink [4d35e2]

==============================================================================

Section Cross References

    main.o(i.Exp10_Relay) refers to _printf_pad.o(.text) for _printf_pre_padding
    main.o(i.Exp10_Relay) refers to _printf_percent.o(.ARM.Collect$$_printf_percent$$00000000) for _printf_percent
    main.o(i.Exp10_Relay) refers to _printf_d.o(.ARM.Collect$$_printf_percent$$00000009) for _printf_d
    main.o(i.Exp10_Relay) refers to _printf_dec.o(.text) for _printf_int_dec
    main.o(i.Exp10_Relay) refers to gpio_out.o(i.LED_Init) for LED_Init
    main.o(i.Exp10_Relay) refers to relay.o(i.Relay_Init) for Relay_Init
    main.o(i.Exp10_Relay) refers to lcd12864.o(i.LCD12864_Init) for LCD12864_Init
    main.o(i.Exp10_Relay) refers to lcd12864.o(i.LCD12864_Clear) for LCD12864_Clear
    main.o(i.Exp10_Relay) refers to lcd12864.o(i.LCD12864_Backlight) for LCD12864_Backlight
    main.o(i.Exp10_Relay) refers to noretval__2printf.o(.text) for __2printf
    main.o(i.Exp10_Relay) refers to relay.o(i.Relay_Set) for Relay_Set
    main.o(i.Exp10_Relay) refers to gpio_out.o(i.LED_AllOff) for LED_AllOff
    main.o(i.Exp10_Relay) refers to gpio_out.o(i.LED_Set) for LED_Set
    main.o(i.Exp10_Relay) refers to lcd12864.o(i.LCD12864_SetPos) for LCD12864_SetPos
    main.o(i.Exp10_Relay) refers to lcd12864.o(i.LCD12864_WriteString) for LCD12864_WriteString
    main.o(i.Exp10_Relay) refers to noretval__2sprintf.o(.text) for __2sprintf
    main.o(i.Exp10_Relay) refers to delay.o(i.delay_ms) for delay_ms
    main.o(i.Exp10_Relay) refers to freertos_tasks.o(.data) for stop_requested
    main.o(i.Exp11_DHT11) refers to _printf_percent.o(.ARM.Collect$$_printf_percent$$00000000) for _printf_percent
    main.o(i.Exp11_DHT11) refers to _printf_d.o(.ARM.Collect$$_printf_percent$$00000009) for _printf_d
    main.o(i.Exp11_DHT11) refers to _printf_dec.o(.text) for _printf_int_dec
    main.o(i.Exp11_DHT11) refers to _printf_pad.o(.text) for _printf_pre_padding
    main.o(i.Exp11_DHT11) refers to dht11.o(i.DHT11_Init) for DHT11_Init
    main.o(i.Exp11_DHT11) refers to lcd12864.o(i.LCD12864_Init) for LCD12864_Init
    main.o(i.Exp11_DHT11) refers to lcd12864.o(i.LCD12864_Clear) for LCD12864_Clear
    main.o(i.Exp11_DHT11) refers to lcd12864.o(i.LCD12864_Backlight) for LCD12864_Backlight
    main.o(i.Exp11_DHT11) refers to noretval__2printf.o(.text) for __2printf
    main.o(i.Exp11_DHT11) refers to delay.o(i.delay_ms) for delay_ms
    main.o(i.Exp11_DHT11) refers to dht11.o(i.DHT11_Read) for DHT11_Read
    main.o(i.Exp11_DHT11) refers to lcd12864.o(i.LCD12864_SetPos) for LCD12864_SetPos
    main.o(i.Exp11_DHT11) refers to lcd12864.o(i.LCD12864_WriteString) for LCD12864_WriteString
    main.o(i.Exp11_DHT11) refers to noretval__2sprintf.o(.text) for __2sprintf
    main.o(i.Exp11_DHT11) refers to freertos_tasks.o(.data) for stop_requested
    main.o(i.Exp12_Thermistor) refers to _printf_percent.o(.ARM.Collect$$_printf_percent$$00000000) for _printf_percent
    main.o(i.Exp12_Thermistor) refers to _printf_d.o(.ARM.Collect$$_printf_percent$$00000009) for _printf_d
    main.o(i.Exp12_Thermistor) refers to _printf_f.o(.ARM.Collect$$_printf_percent$$00000003) for _printf_f
    main.o(i.Exp12_Thermistor) refers to _printf_dec.o(.text) for _printf_int_dec
    main.o(i.Exp12_Thermistor) refers to printf1.o(x$fpl$printf1) for _printf_fp_dec
    main.o(i.Exp12_Thermistor) refers to _printf_pad.o(.text) for _printf_pre_padding
    main.o(i.Exp12_Thermistor) refers to _printf_u.o(.ARM.Collect$$_printf_percent$$0000000A) for _printf_u
    main.o(i.Exp12_Thermistor) refers to sensor_adc.o(i.ADC1_Init) for ADC1_Init
    main.o(i.Exp12_Thermistor) refers to lcd12864.o(i.LCD12864_Init) for LCD12864_Init
    main.o(i.Exp12_Thermistor) refers to lcd12864.o(i.LCD12864_Clear) for LCD12864_Clear
    main.o(i.Exp12_Thermistor) refers to lcd12864.o(i.LCD12864_Backlight) for LCD12864_Backlight
    main.o(i.Exp12_Thermistor) refers to noretval__2printf.o(.text) for __2printf
    main.o(i.Exp12_Thermistor) refers to sensor_adc.o(i.ADC1_ReadAvg) for ADC1_ReadAvg
    main.o(i.Exp12_Thermistor) refers to fflt_clz.o(x$fpl$ffltu) for __aeabi_ui2f
    main.o(i.Exp12_Thermistor) refers to fmul.o(x$fpl$fmul) for __aeabi_fmul
    main.o(i.Exp12_Thermistor) refers to fdiv.o(x$fpl$fdiv) for __aeabi_fdiv
    main.o(i.Exp12_Thermistor) refers to f2d.o(x$fpl$f2d) for __aeabi_f2d
    main.o(i.Exp12_Thermistor) refers to lcd12864.o(i.LCD12864_SetPos) for LCD12864_SetPos
    main.o(i.Exp12_Thermistor) refers to lcd12864.o(i.LCD12864_WriteString) for LCD12864_WriteString
    main.o(i.Exp12_Thermistor) refers to noretval__2sprintf.o(.text) for __2sprintf
    main.o(i.Exp12_Thermistor) refers to delay.o(i.delay_ms) for delay_ms
    main.o(i.Exp12_Thermistor) refers to freertos_tasks.o(.data) for stop_requested
    main.o(i.Exp13_DS18B20) refers to _printf_percent.o(.ARM.Collect$$_printf_percent$$00000000) for _printf_percent
    main.o(i.Exp13_DS18B20) refers to _printf_d.o(.ARM.Collect$$_printf_percent$$00000009) for _printf_d
    main.o(i.Exp13_DS18B20) refers to _printf_c.o(.ARM.Collect$$_printf_percent$$00000013) for _printf_c
    main.o(i.Exp13_DS18B20) refers to _printf_dec.o(.text) for _printf_int_dec
    main.o(i.Exp13_DS18B20) refers to _printf_str.o(.text) for _printf_str
    main.o(i.Exp13_DS18B20) refers to _printf_pad.o(.text) for _printf_pre_padding
    main.o(i.Exp13_DS18B20) refers to ds18b20.o(i.DS18B20_Init) for DS18B20_Init
    main.o(i.Exp13_DS18B20) refers to lcd12864.o(i.LCD12864_Init) for LCD12864_Init
    main.o(i.Exp13_DS18B20) refers to lcd12864.o(i.LCD12864_Clear) for LCD12864_Clear
    main.o(i.Exp13_DS18B20) refers to lcd12864.o(i.LCD12864_Backlight) for LCD12864_Backlight
    main.o(i.Exp13_DS18B20) refers to noretval__2printf.o(.text) for __2printf
    main.o(i.Exp13_DS18B20) refers to delay.o(i.delay_ms) for delay_ms
    main.o(i.Exp13_DS18B20) refers to ds18b20.o(i.DS18B20_StartConvert) for DS18B20_StartConvert
    main.o(i.Exp13_DS18B20) refers to ds18b20.o(i.DS18B20_ReadTemp) for DS18B20_ReadTemp
    main.o(i.Exp13_DS18B20) refers to lcd12864.o(i.LCD12864_SetPos) for LCD12864_SetPos
    main.o(i.Exp13_DS18B20) refers to lcd12864.o(i.LCD12864_WriteString) for LCD12864_WriteString
    main.o(i.Exp13_DS18B20) refers to noretval__2sprintf.o(.text) for __2sprintf
    main.o(i.Exp13_DS18B20) refers to freertos_tasks.o(.data) for stop_requested
    main.o(i.Exp14_DA) refers to _printf_percent.o(.ARM.Collect$$_printf_percent$$00000000) for _printf_percent
    main.o(i.Exp14_DA) refers to _printf_d.o(.ARM.Collect$$_printf_percent$$00000009) for _printf_d
    main.o(i.Exp14_DA) refers to _printf_dec.o(.text) for _printf_int_dec
    main.o(i.Exp14_DA) refers to _printf_pad.o(.text) for _printf_pre_padding
    main.o(i.Exp14_DA) refers to gpio_out.o(i.LED_Init) for LED_Init
    main.o(i.Exp14_DA) refers to gpio_out.o(i.LED_AllOff) for LED_AllOff
    main.o(i.Exp14_DA) refers to tlc5615.o(i.TLC5615_Init) for TLC5615_Init
    main.o(i.Exp14_DA) refers to tlc5615.o(i.TLC5615_SetValue) for TLC5615_SetValue
    main.o(i.Exp14_DA) refers to sensor_adc.o(i.ADC1_Init) for ADC1_Init
    main.o(i.Exp14_DA) refers to lcd12864.o(i.LCD12864_Init) for LCD12864_Init
    main.o(i.Exp14_DA) refers to lcd12864.o(i.LCD12864_Clear) for LCD12864_Clear
    main.o(i.Exp14_DA) refers to lcd12864.o(i.LCD12864_Backlight) for LCD12864_Backlight
    main.o(i.Exp14_DA) refers to noretval__2printf.o(.text) for __2printf
    main.o(i.Exp14_DA) refers to gpio_out.o(i.LED_Set) for LED_Set
    main.o(i.Exp14_DA) refers to delay_us.o(i.delay_us) for delay_us
    main.o(i.Exp14_DA) refers to sensor_adc.o(i.ADC1_ReadAvg) for ADC1_ReadAvg
    main.o(i.Exp14_DA) refers to lcd12864.o(i.LCD12864_SetPos) for LCD12864_SetPos
    main.o(i.Exp14_DA) refers to lcd12864.o(i.LCD12864_WriteString) for LCD12864_WriteString
    main.o(i.Exp14_DA) refers to noretval__2sprintf.o(.text) for __2sprintf
    main.o(i.Exp14_DA) refers to freertos_tasks.o(.data) for stop_requested
    main.o(i.Exp15_RS232) refers to _printf_pad.o(.text) for _printf_pre_padding
    main.o(i.Exp15_RS232) refers to _printf_percent.o(.ARM.Collect$$_printf_percent$$00000000) for _printf_percent
    main.o(i.Exp15_RS232) refers to _printf_x.o(.ARM.Collect$$_printf_percent$$0000000C) for _printf_x
    main.o(i.Exp15_RS232) refers to _printf_c.o(.ARM.Collect$$_printf_percent$$00000013) for _printf_c
    main.o(i.Exp15_RS232) refers to _printf_hex_int.o(.text) for _printf_longlong_hex
    main.o(i.Exp15_RS232) refers to _printf_str.o(.text) for _printf_str
    main.o(i.Exp15_RS232) refers to _printf_d.o(.ARM.Collect$$_printf_percent$$00000009) for _printf_d
    main.o(i.Exp15_RS232) refers to _printf_dec.o(.text) for _printf_int_dec
    main.o(i.Exp15_RS232) refers to rs232.o(i.RS232_Init) for RS232_Init
    main.o(i.Exp15_RS232) refers to lcd12864.o(i.LCD12864_Init) for LCD12864_Init
    main.o(i.Exp15_RS232) refers to lcd12864.o(i.LCD12864_Clear) for LCD12864_Clear
    main.o(i.Exp15_RS232) refers to lcd12864.o(i.LCD12864_Backlight) for LCD12864_Backlight
    main.o(i.Exp15_RS232) refers to noretval__2printf.o(.text) for __2printf
    main.o(i.Exp15_RS232) refers to rs232.o(i.RS232_SendString) for RS232_SendString
    main.o(i.Exp15_RS232) refers to stm32f10x_usart.o(i.USART_Cmd) for USART_Cmd
    main.o(i.Exp15_RS232) refers to rs232.o(i.RS232_ReadByte) for RS232_ReadByte
    main.o(i.Exp15_RS232) refers to rs232.o(i.RS232_RxAvailable) for RS232_RxAvailable
    main.o(i.Exp15_RS232) refers to lcd12864.o(i.LCD12864_SetPos) for LCD12864_SetPos
    main.o(i.Exp15_RS232) refers to lcd12864.o(i.LCD12864_WriteString) for LCD12864_WriteString
    main.o(i.Exp15_RS232) refers to noretval__2sprintf.o(.text) for __2sprintf
    main.o(i.Exp15_RS232) refers to delay.o(i.delay_ms) for delay_ms
    main.o(i.Exp15_RS232) refers to freertos_tasks.o(.data) for stop_requested
    main.o(i.Exp16_RS485) refers to _printf_pad.o(.text) for _printf_pre_padding
    main.o(i.Exp16_RS485) refers to _printf_percent.o(.ARM.Collect$$_printf_percent$$00000000) for _printf_percent
    main.o(i.Exp16_RS485) refers to _printf_x.o(.ARM.Collect$$_printf_percent$$0000000C) for _printf_x
    main.o(i.Exp16_RS485) refers to _printf_c.o(.ARM.Collect$$_printf_percent$$00000013) for _printf_c
    main.o(i.Exp16_RS485) refers to _printf_hex_int.o(.text) for _printf_longlong_hex
    main.o(i.Exp16_RS485) refers to _printf_str.o(.text) for _printf_str
    main.o(i.Exp16_RS485) refers to _printf_d.o(.ARM.Collect$$_printf_percent$$00000009) for _printf_d
    main.o(i.Exp16_RS485) refers to _printf_dec.o(.text) for _printf_int_dec
    main.o(i.Exp16_RS485) refers to rs485.o(i.RS485_Init) for RS485_Init
    main.o(i.Exp16_RS485) refers to lcd12864.o(i.LCD12864_Init) for LCD12864_Init
    main.o(i.Exp16_RS485) refers to lcd12864.o(i.LCD12864_Clear) for LCD12864_Clear
    main.o(i.Exp16_RS485) refers to lcd12864.o(i.LCD12864_Backlight) for LCD12864_Backlight
    main.o(i.Exp16_RS485) refers to noretval__2printf.o(.text) for __2printf
    main.o(i.Exp16_RS485) refers to rs485.o(i.RS485_SendString) for RS485_SendString
    main.o(i.Exp16_RS485) refers to stm32f10x_usart.o(i.USART_Cmd) for USART_Cmd
    main.o(i.Exp16_RS485) refers to rs485.o(i.RS485_ReadByte) for RS485_ReadByte
    main.o(i.Exp16_RS485) refers to rs485.o(i.RS485_RxAvailable) for RS485_RxAvailable
    main.o(i.Exp16_RS485) refers to lcd12864.o(i.LCD12864_SetPos) for LCD12864_SetPos
    main.o(i.Exp16_RS485) refers to lcd12864.o(i.LCD12864_WriteString) for LCD12864_WriteString
    main.o(i.Exp16_RS485) refers to noretval__2sprintf.o(.text) for __2sprintf
    main.o(i.Exp16_RS485) refers to delay.o(i.delay_ms) for delay_ms
    main.o(i.Exp16_RS485) refers to freertos_tasks.o(.data) for stop_requested
    main.o(i.Exp17_Infrared) refers to _printf_pad.o(.text) for _printf_pre_padding
    main.o(i.Exp17_Infrared) refers to _printf_percent.o(.ARM.Collect$$_printf_percent$$00000000) for _printf_percent
    main.o(i.Exp17_Infrared) refers to _printf_x.o(.ARM.Collect$$_printf_percent$$0000000C) for _printf_x
    main.o(i.Exp17_Infrared) refers to _printf_hex_int.o(.text) for _printf_longlong_hex
    main.o(i.Exp17_Infrared) refers to _printf_d.o(.ARM.Collect$$_printf_percent$$00000009) for _printf_d
    main.o(i.Exp17_Infrared) refers to _printf_dec.o(.text) for _printf_int_dec
    main.o(i.Exp17_Infrared) refers to infrared.o(i.IR_Init) for IR_Init
    main.o(i.Exp17_Infrared) refers to gpio_out.o(i.LED_Init) for LED_Init
    main.o(i.Exp17_Infrared) refers to gpio_out.o(i.LED_AllOff) for LED_AllOff
    main.o(i.Exp17_Infrared) refers to lcd12864.o(i.LCD12864_Init) for LCD12864_Init
    main.o(i.Exp17_Infrared) refers to lcd12864.o(i.LCD12864_Clear) for LCD12864_Clear
    main.o(i.Exp17_Infrared) refers to lcd12864.o(i.LCD12864_Backlight) for LCD12864_Backlight
    main.o(i.Exp17_Infrared) refers to noretval__2printf.o(.text) for __2printf
    main.o(i.Exp17_Infrared) refers to infrared.o(i.IR_EXTI_Disable) for IR_EXTI_Disable
    main.o(i.Exp17_Infrared) refers to infrared.o(i.IR_Decode) for IR_Decode
    main.o(i.Exp17_Infrared) refers to infrared.o(i.IR_EXTI_Enable) for IR_EXTI_Enable
    main.o(i.Exp17_Infrared) refers to gpio_out.o(i.LED_Set) for LED_Set
    main.o(i.Exp17_Infrared) refers to lcd12864.o(i.LCD12864_SetPos) for LCD12864_SetPos
    main.o(i.Exp17_Infrared) refers to lcd12864.o(i.LCD12864_WriteString) for LCD12864_WriteString
    main.o(i.Exp17_Infrared) refers to noretval__2sprintf.o(.text) for __2sprintf
    main.o(i.Exp17_Infrared) refers to delay.o(i.delay_ms) for delay_ms
    main.o(i.Exp17_Infrared) refers to freertos_tasks.o(.data) for stop_requested
    main.o(i.Exp17_Infrared) refers to infrared.o(.data) for ir_received
    main.o(i.Exp18_Encoder) refers to _printf_percent.o(.ARM.Collect$$_printf_percent$$00000000) for _printf_percent
    main.o(i.Exp18_Encoder) refers to _printf_d.o(.ARM.Collect$$_printf_percent$$00000009) for _printf_d
    main.o(i.Exp18_Encoder) refers to _printf_dec.o(.text) for _printf_int_dec
    main.o(i.Exp18_Encoder) refers to _printf_pad.o(.text) for _printf_pre_padding
    main.o(i.Exp18_Encoder) refers to encoder.o(i.ENC_Init) for ENC_Init
    main.o(i.Exp18_Encoder) refers to lcd12864.o(i.LCD12864_Init) for LCD12864_Init
    main.o(i.Exp18_Encoder) refers to lcd12864.o(i.LCD12864_Clear) for LCD12864_Clear
    main.o(i.Exp18_Encoder) refers to lcd12864.o(i.LCD12864_Backlight) for LCD12864_Backlight
    main.o(i.Exp18_Encoder) refers to noretval__2printf.o(.text) for __2printf
    main.o(i.Exp18_Encoder) refers to encoder.o(i.ENC_Z_IsPressed) for ENC_Z_IsPressed
    main.o(i.Exp18_Encoder) refers to encoder.o(i.ENC_Reset) for ENC_Reset
    main.o(i.Exp18_Encoder) refers to delay.o(i.delay_ms) for delay_ms
    main.o(i.Exp18_Encoder) refers to encoder.o(i.ENC_GetCount) for ENC_GetCount
    main.o(i.Exp18_Encoder) refers to stm32f10x_gpio.o(i.GPIO_ReadInputDataBit) for GPIO_ReadInputDataBit
    main.o(i.Exp18_Encoder) refers to lcd12864.o(i.LCD12864_SetPos) for LCD12864_SetPos
    main.o(i.Exp18_Encoder) refers to lcd12864.o(i.LCD12864_WriteString) for LCD12864_WriteString
    main.o(i.Exp18_Encoder) refers to noretval__2sprintf.o(.text) for __2sprintf
    main.o(i.Exp18_Encoder) refers to freertos_tasks.o(.data) for stop_requested
    main.o(i.Exp18_StepperMotor) refers to _printf_percent.o(.ARM.Collect$$_printf_percent$$00000000) for _printf_percent
    main.o(i.Exp18_StepperMotor) refers to _printf_d.o(.ARM.Collect$$_printf_percent$$00000009) for _printf_d
    main.o(i.Exp18_StepperMotor) refers to _printf_dec.o(.text) for _printf_int_dec
    main.o(i.Exp18_StepperMotor) refers to _printf_u.o(.ARM.Collect$$_printf_percent$$0000000A) for _printf_u
    main.o(i.Exp18_StepperMotor) refers to _printf_pad.o(.text) for _printf_pre_padding
    main.o(i.Exp18_StepperMotor) refers to stepper.o(i.Stepper_Init) for Stepper_Init
    main.o(i.Exp18_StepperMotor) refers to encoder.o(i.ENC_Init) for ENC_Init
    main.o(i.Exp18_StepperMotor) refers to lcd12864.o(i.LCD12864_Init) for LCD12864_Init
    main.o(i.Exp18_StepperMotor) refers to lcd12864.o(i.LCD12864_Clear) for LCD12864_Clear
    main.o(i.Exp18_StepperMotor) refers to lcd12864.o(i.LCD12864_Backlight) for LCD12864_Backlight
    main.o(i.Exp18_StepperMotor) refers to noretval__2printf.o(.text) for __2printf
    main.o(i.Exp18_StepperMotor) refers to stepper.o(i.Stepper_Stop) for Stepper_Stop
    main.o(i.Exp18_StepperMotor) refers to encoder.o(i.ENC_Z_IsPressed) for ENC_Z_IsPressed
    main.o(i.Exp18_StepperMotor) refers to encoder.o(i.ENC_Reset) for ENC_Reset
    main.o(i.Exp18_StepperMotor) refers to stepper.o(i.Stepper_StepCW) for Stepper_StepCW
    main.o(i.Exp18_StepperMotor) refers to stepper.o(i.Stepper_StepCCW) for Stepper_StepCCW
    main.o(i.Exp18_StepperMotor) refers to encoder.o(i.ENC_GetCount) for ENC_GetCount
    main.o(i.Exp18_StepperMotor) refers to lcd12864.o(i.LCD12864_SetPos) for LCD12864_SetPos
    main.o(i.Exp18_StepperMotor) refers to lcd12864.o(i.LCD12864_WriteString) for LCD12864_WriteString
    main.o(i.Exp18_StepperMotor) refers to noretval__2sprintf.o(.text) for __2sprintf
    main.o(i.Exp18_StepperMotor) refers to delay.o(i.delay_ms) for delay_ms
    main.o(i.Exp18_StepperMotor) refers to freertos_tasks.o(.data) for stop_requested
    main.o(i.Exp19_DCMotorPWM) refers to _printf_percent.o(.ARM.Collect$$_printf_percent$$00000000) for _printf_percent
    main.o(i.Exp19_DCMotorPWM) refers to timer_pwm.o(i.Motor_Init) for Motor_Init
    main.o(i.Exp19_DCMotorPWM) refers to timer_pwm.o(i.Motor_SetDir) for Motor_SetDir
    main.o(i.Exp19_DCMotorPWM) refers to timer_pwm.o(i.Motor_SetSpeed) for Motor_SetSpeed
    main.o(i.Exp19_DCMotorPWM) refers to lcd12864.o(i.LCD12864_Init) for LCD12864_Init
    main.o(i.Exp19_DCMotorPWM) refers to lcd12864.o(i.LCD12864_Clear) for LCD12864_Clear
    main.o(i.Exp19_DCMotorPWM) refers to lcd12864.o(i.LCD12864_Backlight) for LCD12864_Backlight
    main.o(i.Exp19_DCMotorPWM) refers to noretval__2printf.o(.text) for __2printf
    main.o(i.Exp19_DCMotorPWM) refers to timer_pwm.o(i.Motor_Stop) for Motor_Stop
    main.o(i.Exp19_DCMotorPWM) refers to lcd12864.o(i.LCD12864_SetPos) for LCD12864_SetPos
    main.o(i.Exp19_DCMotorPWM) refers to lcd12864.o(i.LCD12864_WriteString) for LCD12864_WriteString
    main.o(i.Exp19_DCMotorPWM) refers to delay.o(i.delay_ms) for delay_ms
    main.o(i.Exp19_DCMotorPWM) refers to freertos_tasks.o(.data) for stop_requested
    main.o(i.Exp1_LED_Flowing) refers to _printf_pad.o(.text) for _printf_pre_padding
    main.o(i.Exp1_LED_Flowing) refers to _printf_percent.o(.ARM.Collect$$_printf_percent$$00000000) for _printf_percent
    main.o(i.Exp1_LED_Flowing) refers to _printf_d.o(.ARM.Collect$$_printf_percent$$00000009) for _printf_d
    main.o(i.Exp1_LED_Flowing) refers to _printf_dec.o(.text) for _printf_int_dec
    main.o(i.Exp1_LED_Flowing) refers to gpio_out.o(i.LED_Init) for LED_Init
    main.o(i.Exp1_LED_Flowing) refers to lcd12864.o(i.LCD12864_Init) for LCD12864_Init
    main.o(i.Exp1_LED_Flowing) refers to lcd12864.o(i.LCD12864_Clear) for LCD12864_Clear
    main.o(i.Exp1_LED_Flowing) refers to lcd12864.o(i.LCD12864_Backlight) for LCD12864_Backlight
    main.o(i.Exp1_LED_Flowing) refers to noretval__2printf.o(.text) for __2printf
    main.o(i.Exp1_LED_Flowing) refers to gpio_out.o(i.LED_AllOff) for LED_AllOff
    main.o(i.Exp1_LED_Flowing) refers to gpio_out.o(i.LED_Set) for LED_Set
    main.o(i.Exp1_LED_Flowing) refers to lcd12864.o(i.LCD12864_SetPos) for LCD12864_SetPos
    main.o(i.Exp1_LED_Flowing) refers to lcd12864.o(i.LCD12864_WriteString) for LCD12864_WriteString
    main.o(i.Exp1_LED_Flowing) refers to noretval__2sprintf.o(.text) for __2sprintf
    main.o(i.Exp1_LED_Flowing) refers to delay.o(i.delay_ms) for delay_ms
    main.o(i.Exp1_LED_Flowing) refers to freertos_tasks.o(.data) for stop_requested
    main.o(i.Exp20_Servo) refers to _printf_percent.o(.ARM.Collect$$_printf_percent$$00000000) for _printf_percent
    main.o(i.Exp20_Servo) refers to _printf_d.o(.ARM.Collect$$_printf_percent$$00000009) for _printf_d
    main.o(i.Exp20_Servo) refers to _printf_dec.o(.text) for _printf_int_dec
    main.o(i.Exp20_Servo) refers to _printf_pad.o(.text) for _printf_pre_padding
    main.o(i.Exp20_Servo) refers to timer_pwm.o(i.TIM4_Servo_Init) for TIM4_Servo_Init
    main.o(i.Exp20_Servo) refers to timer_pwm.o(i.TIM4_Servo_SetAngle) for TIM4_Servo_SetAngle
    main.o(i.Exp20_Servo) refers to lcd12864.o(i.LCD12864_Init) for LCD12864_Init
    main.o(i.Exp20_Servo) refers to lcd12864.o(i.LCD12864_Clear) for LCD12864_Clear
    main.o(i.Exp20_Servo) refers to lcd12864.o(i.LCD12864_Backlight) for LCD12864_Backlight
    main.o(i.Exp20_Servo) refers to noretval__2printf.o(.text) for __2printf
    main.o(i.Exp20_Servo) refers to lcd12864.o(i.LCD12864_SetPos) for LCD12864_SetPos
    main.o(i.Exp20_Servo) refers to lcd12864.o(i.LCD12864_WriteString) for LCD12864_WriteString
    main.o(i.Exp20_Servo) refers to noretval__2sprintf.o(.text) for __2sprintf
    main.o(i.Exp20_Servo) refers to delay.o(i.delay_ms) for delay_ms
    main.o(i.Exp20_Servo) refers to freertos_tasks.o(.data) for stop_requested
    main.o(i.Exp2_KeyPolling) refers to _printf_percent.o(.ARM.Collect$$_printf_percent$$00000000) for _printf_percent
    main.o(i.Exp2_KeyPolling) refers to _printf_d.o(.ARM.Collect$$_printf_percent$$00000009) for _printf_d
    main.o(i.Exp2_KeyPolling) refers to _printf_s.o(.ARM.Collect$$_printf_percent$$00000014) for _printf_s
    main.o(i.Exp2_KeyPolling) refers to _printf_dec.o(.text) for _printf_int_dec
    main.o(i.Exp2_KeyPolling) refers to _printf_str.o(.text) for _printf_str
    main.o(i.Exp2_KeyPolling) refers to gpio_out.o(i.LED_Init) for LED_Init
    main.o(i.Exp2_KeyPolling) refers to gpio_in.o(i.IKEY_Init) for IKEY_Init
    main.o(i.Exp2_KeyPolling) refers to lcd12864.o(i.LCD12864_Init) for LCD12864_Init
    main.o(i.Exp2_KeyPolling) refers to lcd12864.o(i.LCD12864_Clear) for LCD12864_Clear
    main.o(i.Exp2_KeyPolling) refers to lcd12864.o(i.LCD12864_Backlight) for LCD12864_Backlight
    main.o(i.Exp2_KeyPolling) refers to noretval__2printf.o(.text) for __2printf
    main.o(i.Exp2_KeyPolling) refers to gpio_out.o(i.LED_AllOff) for LED_AllOff
    main.o(i.Exp2_KeyPolling) refers to gpio_in.o(i.IKEY_Read) for IKEY_Read
    main.o(i.Exp2_KeyPolling) refers to gpio_out.o(i.LED_Set) for LED_Set
    main.o(i.Exp2_KeyPolling) refers to lcd12864.o(i.LCD12864_SetPos) for LCD12864_SetPos
    main.o(i.Exp2_KeyPolling) refers to lcd12864.o(i.LCD12864_WriteString) for LCD12864_WriteString
    main.o(i.Exp2_KeyPolling) refers to noretval__2sprintf.o(.text) for __2sprintf
    main.o(i.Exp2_KeyPolling) refers to delay.o(i.delay_ms) for delay_ms
    main.o(i.Exp2_KeyPolling) refers to freertos_tasks.o(.data) for stop_requested
    main.o(i.Exp3_LightSensor) refers to _printf_percent.o(.ARM.Collect$$_printf_percent$$00000000) for _printf_percent
    main.o(i.Exp3_LightSensor) refers to _printf_d.o(.ARM.Collect$$_printf_percent$$00000009) for _printf_d
    main.o(i.Exp3_LightSensor) refers to _printf_dec.o(.text) for _printf_int_dec
    main.o(i.Exp3_LightSensor) refers to _printf_pad.o(.text) for _printf_pre_padding
    main.o(i.Exp3_LightSensor) refers to gpio_out.o(i.LED_Init) for LED_Init
    main.o(i.Exp3_LightSensor) refers to sensor_adc.o(i.ADC1_Init) for ADC1_Init
    main.o(i.Exp3_LightSensor) refers to lcd12864.o(i.LCD12864_Init) for LCD12864_Init
    main.o(i.Exp3_LightSensor) refers to lcd12864.o(i.LCD12864_Clear) for LCD12864_Clear
    main.o(i.Exp3_LightSensor) refers to lcd12864.o(i.LCD12864_Backlight) for LCD12864_Backlight
    main.o(i.Exp3_LightSensor) refers to noretval__2printf.o(.text) for __2printf
    main.o(i.Exp3_LightSensor) refers to gpio_out.o(i.LED_AllOff) for LED_AllOff
    main.o(i.Exp3_LightSensor) refers to sensor_adc.o(i.Light_Percent) for Light_Percent
    main.o(i.Exp3_LightSensor) refers to sensor_adc.o(i.ADC1_ReadAvg) for ADC1_ReadAvg
    main.o(i.Exp3_LightSensor) refers to gpio_out.o(i.LED_Set) for LED_Set
    main.o(i.Exp3_LightSensor) refers to lcd12864.o(i.LCD12864_SetPos) for LCD12864_SetPos
    main.o(i.Exp3_LightSensor) refers to lcd12864.o(i.LCD12864_WriteString) for LCD12864_WriteString
    main.o(i.Exp3_LightSensor) refers to noretval__2sprintf.o(.text) for __2sprintf
    main.o(i.Exp3_LightSensor) refers to delay.o(i.delay_ms) for delay_ms
    main.o(i.Exp3_LightSensor) refers to freertos_tasks.o(.data) for stop_requested
    main.o(i.Exp4_USART1_Echo) refers to _printf_pad.o(.text) for _printf_pre_padding
    main.o(i.Exp4_USART1_Echo) refers to _printf_percent.o(.ARM.Collect$$_printf_percent$$00000000) for _printf_percent
    main.o(i.Exp4_USART1_Echo) refers to _printf_x.o(.ARM.Collect$$_printf_percent$$0000000C) for _printf_x
    main.o(i.Exp4_USART1_Echo) refers to _printf_c.o(.ARM.Collect$$_printf_percent$$00000013) for _printf_c
    main.o(i.Exp4_USART1_Echo) refers to _printf_hex_int.o(.text) for _printf_longlong_hex
    main.o(i.Exp4_USART1_Echo) refers to _printf_str.o(.text) for _printf_str
    main.o(i.Exp4_USART1_Echo) refers to _printf_d.o(.ARM.Collect$$_printf_percent$$00000009) for _printf_d
    main.o(i.Exp4_USART1_Echo) refers to _printf_dec.o(.text) for _printf_int_dec
    main.o(i.Exp4_USART1_Echo) refers to usart_debug.o(i.USART_RX_Init) for USART_RX_Init
    main.o(i.Exp4_USART1_Echo) refers to usart_debug.o(i.USART_RX_Flush) for USART_RX_Flush
    main.o(i.Exp4_USART1_Echo) refers to lcd12864.o(i.LCD12864_Init) for LCD12864_Init
    main.o(i.Exp4_USART1_Echo) refers to lcd12864.o(i.LCD12864_Clear) for LCD12864_Clear
    main.o(i.Exp4_USART1_Echo) refers to lcd12864.o(i.LCD12864_Backlight) for LCD12864_Backlight
    main.o(i.Exp4_USART1_Echo) refers to noretval__2printf.o(.text) for __2printf
    main.o(i.Exp4_USART1_Echo) refers to usart_debug.o(i.USART_RX_DeInit) for USART_RX_DeInit
    main.o(i.Exp4_USART1_Echo) refers to usart_debug.o(i.USART_RX_Read) for USART_RX_Read
    main.o(i.Exp4_USART1_Echo) refers to usart_debug.o(i.USART_RX_Available) for USART_RX_Available
    main.o(i.Exp4_USART1_Echo) refers to lcd12864.o(i.LCD12864_SetPos) for LCD12864_SetPos
    main.o(i.Exp4_USART1_Echo) refers to lcd12864.o(i.LCD12864_WriteString) for LCD12864_WriteString
    main.o(i.Exp4_USART1_Echo) refers to noretval__2sprintf.o(.text) for __2sprintf
    main.o(i.Exp4_USART1_Echo) refers to delay.o(i.delay_ms) for delay_ms
    main.o(i.Exp4_USART1_Echo) refers to freertos_tasks.o(.data) for stop_requested
    main.o(i.Exp5_TrafficLight) refers to _printf_pad.o(.text) for _printf_pre_padding
    main.o(i.Exp5_TrafficLight) refers to _printf_percent.o(.ARM.Collect$$_printf_percent$$00000000) for _printf_percent
    main.o(i.Exp5_TrafficLight) refers to _printf_u.o(.ARM.Collect$$_printf_percent$$0000000A) for _printf_u
    main.o(i.Exp5_TrafficLight) refers to _printf_dec.o(.text) for _printf_int_dec
    main.o(i.Exp5_TrafficLight) refers to noretval__2printf.o(.text) for __2printf
    main.o(i.Exp5_TrafficLight) refers to gpio_out.o(i.TrafficLight_Init) for TrafficLight_Init
    main.o(i.Exp5_TrafficLight) refers to gpio_out.o(i.TrafficLight_Set) for TrafficLight_Set
    main.o(i.Exp5_TrafficLight) refers to gpio_out.o(i.Buzzer_Set) for Buzzer_Set
    main.o(i.Exp5_TrafficLight) refers to lcd12864.o(i.LCD12864_Init) for LCD12864_Init
    main.o(i.Exp5_TrafficLight) refers to lcd12864.o(i.LCD12864_Clear) for LCD12864_Clear
    main.o(i.Exp5_TrafficLight) refers to lcd12864.o(i.LCD12864_Backlight) for LCD12864_Backlight
    main.o(i.Exp5_TrafficLight) refers to delay.o(i.delay_ms) for delay_ms
    main.o(i.Exp5_TrafficLight) refers to lcd12864.o(i.LCD12864_SetPos) for LCD12864_SetPos
    main.o(i.Exp5_TrafficLight) refers to lcd12864.o(i.LCD12864_WriteString) for LCD12864_WriteString
    main.o(i.Exp5_TrafficLight) refers to noretval__2sprintf.o(.text) for __2sprintf
    main.o(i.Exp5_TrafficLight) refers to freertos_tasks.o(.data) for stop_requested
    main.o(i.Exp6_LCD12864) refers to lcd12864.o(i.LCD12864_Init) for LCD12864_Init
    main.o(i.Exp6_LCD12864) refers to lcd12864.o(i.LCD12864_Clear) for LCD12864_Clear
    main.o(i.Exp6_LCD12864) refers to noretval__2printf.o(.text) for __2printf
    main.o(i.Exp6_LCD12864) refers to lcd12864.o(i.LCD12864_Backlight) for LCD12864_Backlight
    main.o(i.Exp6_LCD12864) refers to lcd12864.o(i.LCD12864_SetPos) for LCD12864_SetPos
    main.o(i.Exp6_LCD12864) refers to lcd12864.o(i.LCD12864_WriteString) for LCD12864_WriteString
    main.o(i.Exp6_LCD12864) refers to delay.o(i.delay_ms) for delay_ms
    main.o(i.Exp6_LCD12864) refers to freertos_tasks.o(.data) for stop_requested
    main.o(i.Exp7_CH451) refers to _printf_pad.o(.text) for _printf_pre_padding
    main.o(i.Exp7_CH451) refers to _printf_percent.o(.ARM.Collect$$_printf_percent$$00000000) for _printf_percent
    main.o(i.Exp7_CH451) refers to _printf_d.o(.ARM.Collect$$_printf_percent$$00000009) for _printf_d
    main.o(i.Exp7_CH451) refers to _printf_x.o(.ARM.Collect$$_printf_percent$$0000000C) for _printf_x
    main.o(i.Exp7_CH451) refers to _printf_dec.o(.text) for _printf_int_dec
    main.o(i.Exp7_CH451) refers to _printf_hex_int.o(.text) for _printf_longlong_hex
    main.o(i.Exp7_CH451) refers to ch451.o(i.CH451_Init) for CH451_Init
    main.o(i.Exp7_CH451) refers to lcd12864.o(i.LCD12864_Init) for LCD12864_Init
    main.o(i.Exp7_CH451) refers to lcd12864.o(i.LCD12864_Clear) for LCD12864_Clear
    main.o(i.Exp7_CH451) refers to lcd12864.o(i.LCD12864_Backlight) for LCD12864_Backlight
    main.o(i.Exp7_CH451) refers to noretval__2printf.o(.text) for __2printf
    main.o(i.Exp7_CH451) refers to ch451.o(i.CH451_DisplayNum) for CH451_DisplayNum
    main.o(i.Exp7_CH451) refers to ch451.o(i.CH451_Clear) for CH451_Clear
    main.o(i.Exp7_CH451) refers to ch451.o(i.CH451_ReadKey) for CH451_ReadKey
    main.o(i.Exp7_CH451) refers to delay.o(i.delay_ms) for delay_ms
    main.o(i.Exp7_CH451) refers to lcd12864.o(i.LCD12864_SetPos) for LCD12864_SetPos
    main.o(i.Exp7_CH451) refers to lcd12864.o(i.LCD12864_WriteString) for LCD12864_WriteString
    main.o(i.Exp7_CH451) refers to noretval__2sprintf.o(.text) for __2sprintf
    main.o(i.Exp7_CH451) refers to freertos_tasks.o(.data) for stop_requested
    main.o(i.Exp8_IndependentKeys) refers to _printf_percent.o(.ARM.Collect$$_printf_percent$$00000000) for _printf_percent
    main.o(i.Exp8_IndependentKeys) refers to _printf_d.o(.ARM.Collect$$_printf_percent$$00000009) for _printf_d
    main.o(i.Exp8_IndependentKeys) refers to _printf_s.o(.ARM.Collect$$_printf_percent$$00000014) for _printf_s
    main.o(i.Exp8_IndependentKeys) refers to _printf_dec.o(.text) for _printf_int_dec
    main.o(i.Exp8_IndependentKeys) refers to _printf_str.o(.text) for _printf_str
    main.o(i.Exp8_IndependentKeys) refers to gpio_out.o(i.LED_Init) for LED_Init
    main.o(i.Exp8_IndependentKeys) refers to gpio_in.o(i.IKEY_EXTI_Init) for IKEY_EXTI_Init
    main.o(i.Exp8_IndependentKeys) refers to lcd12864.o(i.LCD12864_Init) for LCD12864_Init
    main.o(i.Exp8_IndependentKeys) refers to lcd12864.o(i.LCD12864_Clear) for LCD12864_Clear
    main.o(i.Exp8_IndependentKeys) refers to lcd12864.o(i.LCD12864_Backlight) for LCD12864_Backlight
    main.o(i.Exp8_IndependentKeys) refers to noretval__2printf.o(.text) for __2printf
    main.o(i.Exp8_IndependentKeys) refers to gpio_out.o(i.LED_AllOff) for LED_AllOff
    main.o(i.Exp8_IndependentKeys) refers to gpio_in.o(i.IKEY_EXTI_DeInit) for IKEY_EXTI_DeInit
    main.o(i.Exp8_IndependentKeys) refers to delay.o(i.delay_ms) for delay_ms
    main.o(i.Exp8_IndependentKeys) refers to gpio_in.o(i.IKEY_Read) for IKEY_Read
    main.o(i.Exp8_IndependentKeys) refers to gpio_out.o(i.LED_Set) for LED_Set
    main.o(i.Exp8_IndependentKeys) refers to lcd12864.o(i.LCD12864_SetPos) for LCD12864_SetPos
    main.o(i.Exp8_IndependentKeys) refers to lcd12864.o(i.LCD12864_WriteString) for LCD12864_WriteString
    main.o(i.Exp8_IndependentKeys) refers to noretval__2sprintf.o(.text) for __2sprintf
    main.o(i.Exp8_IndependentKeys) refers to freertos_tasks.o(.data) for stop_requested
    main.o(i.Exp8_IndependentKeys) refers to gpio_in.o(.data) for ikey_pressed
    main.o(i.Exp9_DIPSwitch) refers to _printf_pad.o(.text) for _printf_pre_padding
    main.o(i.Exp9_DIPSwitch) refers to _printf_percent.o(.ARM.Collect$$_printf_percent$$00000000) for _printf_percent
    main.o(i.Exp9_DIPSwitch) refers to _printf_d.o(.ARM.Collect$$_printf_percent$$00000009) for _printf_d
    main.o(i.Exp9_DIPSwitch) refers to _printf_x.o(.ARM.Collect$$_printf_percent$$0000000C) for _printf_x
    main.o(i.Exp9_DIPSwitch) refers to _printf_dec.o(.text) for _printf_int_dec
    main.o(i.Exp9_DIPSwitch) refers to _printf_hex_int.o(.text) for _printf_longlong_hex
    main.o(i.Exp9_DIPSwitch) refers to gpio_out.o(i.LED_Init) for LED_Init
    main.o(i.Exp9_DIPSwitch) refers to gpio_in.o(i.SW_Init) for SW_Init
    main.o(i.Exp9_DIPSwitch) refers to lcd12864.o(i.LCD12864_Init) for LCD12864_Init
    main.o(i.Exp9_DIPSwitch) refers to lcd12864.o(i.LCD12864_Clear) for LCD12864_Clear
    main.o(i.Exp9_DIPSwitch) refers to lcd12864.o(i.LCD12864_Backlight) for LCD12864_Backlight
    main.o(i.Exp9_DIPSwitch) refers to noretval__2printf.o(.text) for __2printf
    main.o(i.Exp9_DIPSwitch) refers to gpio_out.o(i.LED_AllOff) for LED_AllOff
    main.o(i.Exp9_DIPSwitch) refers to gpio_in.o(i.SW_ReadAll) for SW_ReadAll
    main.o(i.Exp9_DIPSwitch) refers to gpio_out.o(i.LED_Set) for LED_Set
    main.o(i.Exp9_DIPSwitch) refers to lcd12864.o(i.LCD12864_SetPos) for LCD12864_SetPos
    main.o(i.Exp9_DIPSwitch) refers to lcd12864.o(i.LCD12864_WriteString) for LCD12864_WriteString
    main.o(i.Exp9_DIPSwitch) refers to noretval__2sprintf.o(.text) for __2sprintf
    main.o(i.Exp9_DIPSwitch) refers to delay.o(i.delay_ms) for delay_ms
    main.o(i.Exp9_DIPSwitch) refers to freertos_tasks.o(.data) for stop_requested
    main.o(i.WKUP_Init) refers to stm32f10x_rcc.o(i.RCC_APB2PeriphClockCmd) for RCC_APB2PeriphClockCmd
    main.o(i.WKUP_Init) refers to stm32f10x_gpio.o(i.GPIO_Init) for GPIO_Init
    main.o(i.WKUP_IsPressed) refers to stm32f10x_gpio.o(i.GPIO_ReadInputDataBit) for GPIO_ReadInputDataBit
    main.o(i.main) refers to misc.o(i.NVIC_PriorityGroupConfig) for NVIC_PriorityGroupConfig
    main.o(i.main) refers to delay_us.o(i.delay_us_init) for delay_us_init
    main.o(i.main) refers to gpio_out.o(i.LED_Init) for LED_Init
    main.o(i.main) refers to main.o(i.WKUP_Init) for WKUP_Init
    main.o(i.main) refers to usart.o(i.usart_init) for usart_init
    main.o(i.main) refers to noretval__2printf.o(.text) for __2printf
    main.o(i.main) refers to stm32f10x_rcc.o(i.RCC_APB2PeriphClockCmd) for RCC_APB2PeriphClockCmd
    main.o(i.main) refers to stm32f10x_gpio.o(i.GPIO_Init) for GPIO_Init
    main.o(i.main) refers to stm32f10x_gpio.o(i.GPIO_ResetBits) for GPIO_ResetBits
    main.o(i.main) refers to freertos_tasks.o(i.freertos_init) for freertos_init
    main.o(i.main) refers to tasks.o(i.vTaskStartScheduler) for vTaskStartScheduler
    freertos_tasks.o(i.RunExperiment) refers to main.o(i.Exp6_LCD12864) for Exp6_LCD12864
    freertos_tasks.o(i.RunExperiment) refers to main.o(i.Exp1_LED_Flowing) for Exp1_LED_Flowing
    freertos_tasks.o(i.RunExperiment) refers to main.o(i.Exp2_KeyPolling) for Exp2_KeyPolling
    freertos_tasks.o(i.RunExperiment) refers to main.o(i.Exp8_IndependentKeys) for Exp8_IndependentKeys
    freertos_tasks.o(i.RunExperiment) refers to main.o(i.Exp9_DIPSwitch) for Exp9_DIPSwitch
    freertos_tasks.o(i.RunExperiment) refers to main.o(i.Exp3_LightSensor) for Exp3_LightSensor
    freertos_tasks.o(i.RunExperiment) refers to main.o(i.Exp12_Thermistor) for Exp12_Thermistor
    freertos_tasks.o(i.RunExperiment) refers to main.o(i.Exp11_DHT11) for Exp11_DHT11
    freertos_tasks.o(i.RunExperiment) refers to main.o(i.Exp13_DS18B20) for Exp13_DS18B20
    freertos_tasks.o(i.RunExperiment) refers to main.o(i.Exp4_USART1_Echo) for Exp4_USART1_Echo
    freertos_tasks.o(i.RunExperiment) refers to main.o(i.Exp15_RS232) for Exp15_RS232
    freertos_tasks.o(i.RunExperiment) refers to main.o(i.Exp16_RS485) for Exp16_RS485
    freertos_tasks.o(i.RunExperiment) refers to main.o(i.Exp17_Infrared) for Exp17_Infrared
    freertos_tasks.o(i.RunExperiment) refers to main.o(i.Exp5_TrafficLight) for Exp5_TrafficLight
    freertos_tasks.o(i.RunExperiment) refers to main.o(i.Exp7_CH451) for Exp7_CH451
    freertos_tasks.o(i.RunExperiment) refers to main.o(i.Exp10_Relay) for Exp10_Relay
    freertos_tasks.o(i.RunExperiment) refers to main.o(i.Exp14_DA) for Exp14_DA
    freertos_tasks.o(i.RunExperiment) refers to main.o(i.Exp18_Encoder) for Exp18_Encoder
    freertos_tasks.o(i.RunExperiment) refers to main.o(i.Exp19_DCMotorPWM) for Exp19_DCMotorPWM
    freertos_tasks.o(i.RunExperiment) refers to main.o(i.Exp20_Servo) for Exp20_Servo
    freertos_tasks.o(i.RunExperiment) refers to main.o(i.Exp18_StepperMotor) for Exp18_StepperMotor
    freertos_tasks.o(i.freertos_init) refers to queue.o(i.xQueueGenericCreate) for xQueueGenericCreate
    freertos_tasks.o(i.freertos_init) refers to tasks.o(i.xTaskCreate) for xTaskCreate
    freertos_tasks.o(i.freertos_init) refers to freertos_tasks.o(.data) for xModeQueue
    freertos_tasks.o(i.freertos_init) refers to freertos_tasks.o(i.vControlTask) for vControlTask
    freertos_tasks.o(i.freertos_init) refers to freertos_tasks.o(i.vExperimentTask) for vExperimentTask
    freertos_tasks.o(i.vControlTask) refers to queue.o(i.xQueueGenericSend) for xQueueGenericSend
    freertos_tasks.o(i.vControlTask) refers to main.o(i.WKUP_IsPressed) for WKUP_IsPressed
    freertos_tasks.o(i.vControlTask) refers to tasks.o(i.vTaskDelay) for vTaskDelay
    freertos_tasks.o(i.vControlTask) refers to freertos_tasks.o(.data) for scheduler_started
    freertos_tasks.o(i.vExperimentTask) refers to _printf_percent.o(.ARM.Collect$$_printf_percent$$00000000) for _printf_percent
    freertos_tasks.o(i.vExperimentTask) refers to _printf_d.o(.ARM.Collect$$_printf_percent$$00000009) for _printf_d
    freertos_tasks.o(i.vExperimentTask) refers to _printf_dec.o(.text) for _printf_int_dec
    freertos_tasks.o(i.vExperimentTask) refers to queue.o(i.xQueueGenericReceive) for xQueueGenericReceive
    freertos_tasks.o(i.vExperimentTask) refers to noretval__2printf.o(.text) for __2printf
    freertos_tasks.o(i.vExperimentTask) refers to freertos_tasks.o(i.RunExperiment) for RunExperiment
    freertos_tasks.o(i.vExperimentTask) refers to freertos_tasks.o(.data) for xModeQueue
    delay.o(i.delay_ms) refers to tasks.o(i.vTaskDelay) for vTaskDelay
    delay.o(i.delay_ms) refers to freertos_tasks.o(.data) for scheduler_started
    key.o(i.KEY_init) refers to stm32f10x_rcc.o(i.RCC_APB2PeriphClockCmd) for RCC_APB2PeriphClockCmd
    key.o(i.KEY_init) refers to stm32f10x_gpio.o(i.GPIO_Init) for GPIO_Init
    key.o(i.key_count) refers to stm32f10x_gpio.o(i.GPIO_ReadInputDataBit) for GPIO_ReadInputDataBit
    key.o(i.key_count) refers to delay.o(i.delay_ms) for delay_ms
    key.o(i.key_count) refers to key.o(.data) for key_up
    led.o(i.led_init) refers to stm32f10x_rcc.o(i.RCC_APB2PeriphClockCmd) for RCC_APB2PeriphClockCmd
    led.o(i.led_init) refers to stm32f10x_gpio.o(i.GPIO_Init) for GPIO_Init
    led.o(i.led_init) refers to stm32f10x_gpio.o(i.GPIO_SetBits) for GPIO_SetBits
    usart.o(.rev16_text) refers (Special) to use_no_semi_2.o(.text) for __use_no_semihosting
    usart.o(.revsh_text) refers (Special) to use_no_semi_2.o(.text) for __use_no_semihosting
    usart.o(.rrx_text) refers (Special) to use_no_semi_2.o(.text) for __use_no_semihosting
    usart.o(i._sys_exit) refers (Special) to use_no_semi_2.o(.text) for __use_no_semihosting
    usart.o(i.fputc) refers (Special) to use_no_semi_2.o(.text) for __use_no_semihosting
    usart.o(i.usart_init) refers (Special) to use_no_semi_2.o(.text) for __use_no_semihosting
    usart.o(i.usart_init) refers to stm32f10x_rcc.o(i.RCC_APB2PeriphClockCmd) for RCC_APB2PeriphClockCmd
    usart.o(i.usart_init) refers to stm32f10x_gpio.o(i.GPIO_Init) for GPIO_Init
    usart.o(i.usart_init) refers to stm32f10x_usart.o(i.USART_Init) for USART_Init
    usart.o(i.usart_init) refers to stm32f10x_usart.o(i.USART_Cmd) for USART_Cmd
    usart.o(.data) refers (Special) to use_no_semi_2.o(.text) for __use_no_semihosting
    timer.o(i.TIM3_Int_Init) refers to stm32f10x_rcc.o(i.RCC_APB1PeriphClockCmd) for RCC_APB1PeriphClockCmd
    timer.o(i.TIM3_Int_Init) refers to stm32f10x_tim.o(i.TIM_TimeBaseInit) for TIM_TimeBaseInit
    timer.o(i.TIM3_Int_Init) refers to stm32f10x_tim.o(i.TIM_ITConfig) for TIM_ITConfig
    timer.o(i.TIM3_Int_Init) refers to misc.o(i.NVIC_Init) for NVIC_Init
    timer.o(i.TIM3_Int_Init) refers to stm32f10x_tim.o(i.TIM_Cmd) for TIM_Cmd
    tsensor.o(i.Get_Temprate) refers to tsensor.o(i.T_Get_Adc_Average) for T_Get_Adc_Average
    tsensor.o(i.Get_Temprate) refers to fflt_clz.o(x$fpl$ffltu) for __aeabi_ui2f
    tsensor.o(i.Get_Temprate) refers to f2d.o(x$fpl$f2d) for __aeabi_f2d
    tsensor.o(i.Get_Temprate) refers to dmul.o(x$fpl$dmul) for __aeabi_dmul
    tsensor.o(i.Get_Temprate) refers to daddsub_clz.o(x$fpl$dsub) for __aeabi_dsub
    tsensor.o(i.Get_Temprate) refers to ddiv.o(x$fpl$ddiv) for __aeabi_ddiv
    tsensor.o(i.Get_Temprate) refers to daddsub_clz.o(x$fpl$dadd) for __aeabi_dadd
    tsensor.o(i.Get_Temprate) refers to dfix.o(x$fpl$dfix) for __aeabi_d2iz
    tsensor.o(i.T_Adc_Init) refers to stm32f10x_rcc.o(i.RCC_APB2PeriphClockCmd) for RCC_APB2PeriphClockCmd
    tsensor.o(i.T_Adc_Init) refers to stm32f10x_rcc.o(i.RCC_ADCCLKConfig) for RCC_ADCCLKConfig
    tsensor.o(i.T_Adc_Init) refers to stm32f10x_adc.o(i.ADC_DeInit) for ADC_DeInit
    tsensor.o(i.T_Adc_Init) refers to stm32f10x_adc.o(i.ADC_Init) for ADC_Init
    tsensor.o(i.T_Adc_Init) refers to stm32f10x_adc.o(i.ADC_TempSensorVrefintCmd) for ADC_TempSensorVrefintCmd
    tsensor.o(i.T_Adc_Init) refers to stm32f10x_adc.o(i.ADC_Cmd) for ADC_Cmd
    tsensor.o(i.T_Adc_Init) refers to stm32f10x_adc.o(i.ADC_ResetCalibration) for ADC_ResetCalibration
    tsensor.o(i.T_Adc_Init) refers to stm32f10x_adc.o(i.ADC_GetResetCalibrationStatus) for ADC_GetResetCalibrationStatus
    tsensor.o(i.T_Adc_Init) refers to stm32f10x_adc.o(i.ADC_StartCalibration) for ADC_StartCalibration
    tsensor.o(i.T_Adc_Init) refers to stm32f10x_adc.o(i.ADC_GetCalibrationStatus) for ADC_GetCalibrationStatus
    tsensor.o(i.T_Get_Adc) refers to stm32f10x_adc.o(i.ADC_RegularChannelConfig) for ADC_RegularChannelConfig
    tsensor.o(i.T_Get_Adc) refers to stm32f10x_adc.o(i.ADC_SoftwareStartConvCmd) for ADC_SoftwareStartConvCmd
    tsensor.o(i.T_Get_Adc) refers to stm32f10x_adc.o(i.ADC_GetFlagStatus) for ADC_GetFlagStatus
    tsensor.o(i.T_Get_Adc) refers to stm32f10x_adc.o(i.ADC_GetConversionValue) for ADC_GetConversionValue
    tsensor.o(i.T_Get_Adc_Average) refers to tsensor.o(i.T_Get_Adc) for T_Get_Adc
    tsensor.o(i.T_Get_Adc_Average) refers to delay.o(i.delay_ms) for delay_ms
    tsensor.o(i.T_Get_Temp) refers to tsensor.o(i.T_Get_Adc) for T_Get_Adc
    tsensor.o(i.T_Get_Temp) refers to delay.o(i.delay_ms) for delay_ms
    lsens.o(i.Lsens_Get_Val) refers to adc.o(i.Get_Adc3) for Get_Adc3
    lsens.o(i.Lsens_Get_Val) refers to delay.o(i.delay_ms) for delay_ms
    lsens.o(i.Lsens_Init) refers to stm32f10x_rcc.o(i.RCC_APB2PeriphClockCmd) for RCC_APB2PeriphClockCmd
    lsens.o(i.Lsens_Init) refers to stm32f10x_gpio.o(i.GPIO_Init) for GPIO_Init
    lsens.o(i.Lsens_Init) refers to adc.o(i.Adc3_Init) for Adc3_Init
    adc.o(i.Adc3_Init) refers to stm32f10x_rcc.o(i.RCC_APB2PeriphClockCmd) for RCC_APB2PeriphClockCmd
    adc.o(i.Adc3_Init) refers to stm32f10x_rcc.o(i.RCC_APB2PeriphResetCmd) for RCC_APB2PeriphResetCmd
    adc.o(i.Adc3_Init) refers to stm32f10x_adc.o(i.ADC_DeInit) for ADC_DeInit
    adc.o(i.Adc3_Init) refers to stm32f10x_adc.o(i.ADC_Init) for ADC_Init
    adc.o(i.Adc3_Init) refers to stm32f10x_adc.o(i.ADC_Cmd) for ADC_Cmd
    adc.o(i.Adc3_Init) refers to stm32f10x_adc.o(i.ADC_ResetCalibration) for ADC_ResetCalibration
    adc.o(i.Adc3_Init) refers to stm32f10x_adc.o(i.ADC_GetResetCalibrationStatus) for ADC_GetResetCalibrationStatus
    adc.o(i.Adc3_Init) refers to stm32f10x_adc.o(i.ADC_StartCalibration) for ADC_StartCalibration
    adc.o(i.Adc3_Init) refers to stm32f10x_adc.o(i.ADC_GetCalibrationStatus) for ADC_GetCalibrationStatus
    adc.o(i.Get_Adc3) refers to stm32f10x_adc.o(i.ADC_RegularChannelConfig) for ADC_RegularChannelConfig
    adc.o(i.Get_Adc3) refers to stm32f10x_adc.o(i.ADC_SoftwareStartConvCmd) for ADC_SoftwareStartConvCmd
    adc.o(i.Get_Adc3) refers to stm32f10x_adc.o(i.ADC_GetFlagStatus) for ADC_GetFlagStatus
    adc.o(i.Get_Adc3) refers to stm32f10x_adc.o(i.ADC_GetConversionValue) for ADC_GetConversionValue
    usart_debug.o(i.USART1_IRQHandler) refers to stm32f10x_usart.o(i.USART_GetITStatus) for USART_GetITStatus
    usart_debug.o(i.USART1_IRQHandler) refers to stm32f10x_usart.o(i.USART_ReceiveData) for USART_ReceiveData
    usart_debug.o(i.USART1_IRQHandler) refers to usart_debug.o(.data) for rx_count
    usart_debug.o(i.USART1_IRQHandler) refers to usart_debug.o(.bss) for rx_buf
    usart_debug.o(i.USART_RX_Available) refers to usart_debug.o(.data) for rx_count
    usart_debug.o(i.USART_RX_DeInit) refers to stm32f10x_usart.o(i.USART_ITConfig) for USART_ITConfig
    usart_debug.o(i.USART_RX_Flush) refers to usart_debug.o(.data) for rx_head
    usart_debug.o(i.USART_RX_Init) refers to stm32f10x_usart.o(i.USART_ITConfig) for USART_ITConfig
    usart_debug.o(i.USART_RX_Init) refers to misc.o(i.NVIC_Init) for NVIC_Init
    usart_debug.o(i.USART_RX_Read) refers to usart_debug.o(.data) for rx_count
    usart_debug.o(i.USART_RX_Read) refers to usart_debug.o(.bss) for rx_buf
    gpio_out.o(i.Buzzer_Set) refers to stm32f10x_gpio.o(i.GPIO_SetBits) for GPIO_SetBits
    gpio_out.o(i.Buzzer_Set) refers to stm32f10x_gpio.o(i.GPIO_ResetBits) for GPIO_ResetBits
    gpio_out.o(i.LED_AllOff) refers to stm32f10x_gpio.o(i.GPIO_SetBits) for GPIO_SetBits
    gpio_out.o(i.LED_AllOn) refers to stm32f10x_gpio.o(i.GPIO_ResetBits) for GPIO_ResetBits
    gpio_out.o(i.LED_Init) refers to stm32f10x_rcc.o(i.RCC_APB2PeriphClockCmd) for RCC_APB2PeriphClockCmd
    gpio_out.o(i.LED_Init) refers to stm32f10x_gpio.o(i.GPIO_Init) for GPIO_Init
    gpio_out.o(i.LED_Init) refers to stm32f10x_gpio.o(i.GPIO_SetBits) for GPIO_SetBits
    gpio_out.o(i.LED_Set) refers to stm32f10x_gpio.o(i.GPIO_ResetBits) for GPIO_ResetBits
    gpio_out.o(i.LED_Set) refers to stm32f10x_gpio.o(i.GPIO_SetBits) for GPIO_SetBits
    gpio_out.o(i.LED_Set) refers to gpio_out.o(.constdata) for led_pin
    gpio_out.o(i.LED_WriteAll) refers to stm32f10x_gpio.o(i.GPIO_ReadOutputData) for GPIO_ReadOutputData
    gpio_out.o(i.LED_WriteAll) refers to stm32f10x_gpio.o(i.GPIO_Write) for GPIO_Write
    gpio_out.o(i.LED_WriteAll) refers to stm32f10x_gpio.o(i.GPIO_ResetBits) for GPIO_ResetBits
    gpio_out.o(i.LED_WriteAll) refers to gpio_out.o(.constdata) for led_pin
    gpio_out.o(i.TrafficLight_Init) refers to stm32f10x_rcc.o(i.RCC_APB2PeriphClockCmd) for RCC_APB2PeriphClockCmd
    gpio_out.o(i.TrafficLight_Init) refers to stm32f10x_gpio.o(i.GPIO_Init) for GPIO_Init
    gpio_out.o(i.TrafficLight_Init) refers to stm32f10x_gpio.o(i.GPIO_SetBits) for GPIO_SetBits
    gpio_out.o(i.TrafficLight_Init) refers to stm32f10x_gpio.o(i.GPIO_ResetBits) for GPIO_ResetBits
    gpio_out.o(i.TrafficLight_Set) refers to stm32f10x_gpio.o(i.GPIO_SetBits) for GPIO_SetBits
    gpio_out.o(i.TrafficLight_Set) refers to stm32f10x_gpio.o(i.GPIO_ResetBits) for GPIO_ResetBits
    gpio_in.o(i.EXTI2_IRQHandler) refers to stm32f10x_exti.o(i.EXTI_GetITStatus) for EXTI_GetITStatus
    gpio_in.o(i.EXTI2_IRQHandler) refers to stm32f10x_exti.o(i.EXTI_ClearITPendingBit) for EXTI_ClearITPendingBit
    gpio_in.o(i.EXTI2_IRQHandler) refers to gpio_in.o(.data) for ikey_pressed
    gpio_in.o(i.EXTI3_IRQHandler) refers to stm32f10x_exti.o(i.EXTI_GetITStatus) for EXTI_GetITStatus
    gpio_in.o(i.EXTI3_IRQHandler) refers to stm32f10x_exti.o(i.EXTI_ClearITPendingBit) for EXTI_ClearITPendingBit
    gpio_in.o(i.EXTI3_IRQHandler) refers to gpio_in.o(.data) for ikey_pressed
    gpio_in.o(i.IKEY_EXTI_DeInit) refers to stm32f10x_exti.o(i.EXTI_Init) for EXTI_Init
    gpio_in.o(i.IKEY_EXTI_DeInit) refers to misc.o(i.NVIC_Init) for NVIC_Init
    gpio_in.o(i.IKEY_EXTI_DeInit) refers to stm32f10x_exti.o(i.EXTI_ClearITPendingBit) for EXTI_ClearITPendingBit
    gpio_in.o(i.IKEY_EXTI_Init) refers to stm32f10x_rcc.o(i.RCC_APB2PeriphClockCmd) for RCC_APB2PeriphClockCmd
    gpio_in.o(i.IKEY_EXTI_Init) refers to stm32f10x_gpio.o(i.GPIO_Init) for GPIO_Init
    gpio_in.o(i.IKEY_EXTI_Init) refers to stm32f10x_gpio.o(i.GPIO_EXTILineConfig) for GPIO_EXTILineConfig
    gpio_in.o(i.IKEY_EXTI_Init) refers to stm32f10x_exti.o(i.EXTI_Init) for EXTI_Init
    gpio_in.o(i.IKEY_EXTI_Init) refers to misc.o(i.NVIC_Init) for NVIC_Init
    gpio_in.o(i.IKEY_EXTI_Init) refers to stm32f10x_exti.o(i.EXTI_ClearITPendingBit) for EXTI_ClearITPendingBit
    gpio_in.o(i.IKEY_EXTI_Init) refers to gpio_in.o(.data) for ikey_pressed
    gpio_in.o(i.IKEY_Init) refers to stm32f10x_rcc.o(i.RCC_APB2PeriphClockCmd) for RCC_APB2PeriphClockCmd
    gpio_in.o(i.IKEY_Init) refers to stm32f10x_gpio.o(i.GPIO_Init) for GPIO_Init
    gpio_in.o(i.IKEY_Read) refers to stm32f10x_gpio.o(i.GPIO_ReadInputDataBit) for GPIO_ReadInputDataBit
    gpio_in.o(i.SW_Init) refers to stm32f10x_rcc.o(i.RCC_APB2PeriphClockCmd) for RCC_APB2PeriphClockCmd
    gpio_in.o(i.SW_Init) refers to stm32f10x_gpio.o(i.GPIO_Init) for GPIO_Init
    gpio_in.o(i.SW_Init) refers to stm32f10x_rcc.o(i.RCC_APB1PeriphClockCmd) for RCC_APB1PeriphClockCmd
    gpio_in.o(i.SW_Read) refers to stm32f10x_gpio.o(i.GPIO_ReadInputDataBit) for GPIO_ReadInputDataBit
    gpio_in.o(i.SW_ReadAll) refers to stm32f10x_gpio.o(i.GPIO_ReadInputDataBit) for GPIO_ReadInputDataBit
    dht11.o(i.DHT11_Init) refers to stm32f10x_rcc.o(i.RCC_APB2PeriphClockCmd) for RCC_APB2PeriphClockCmd
    dht11.o(i.DHT11_Init) refers to dht11.o(i.DHT11_PinOut) for DHT11_PinOut
    dht11.o(i.DHT11_Init) refers to dht11.o(i.DHT11_WritePin) for DHT11_WritePin
    dht11.o(i.DHT11_PinIn) refers to stm32f10x_gpio.o(i.GPIO_Init) for GPIO_Init
    dht11.o(i.DHT11_PinOut) refers to stm32f10x_gpio.o(i.GPIO_Init) for GPIO_Init
    dht11.o(i.DHT11_Read) refers to dht11.o(i.DHT11_PinOut) for DHT11_PinOut
    dht11.o(i.DHT11_Read) refers to dht11.o(i.DHT11_WritePin) for DHT11_WritePin
    dht11.o(i.DHT11_Read) refers to delay_us.o(i.delay_us) for delay_us
    dht11.o(i.DHT11_Read) refers to dht11.o(i.DHT11_PinIn) for DHT11_PinIn
    dht11.o(i.DHT11_Read) refers to dht11.o(i.DHT11_ReadPin) for DHT11_ReadPin
    dht11.o(i.DHT11_Read) refers to dht11.o(i.DHT11_ReadByte) for DHT11_ReadByte
    dht11.o(i.DHT11_ReadByte) refers to dht11.o(i.DHT11_ReadPin) for DHT11_ReadPin
    dht11.o(i.DHT11_ReadByte) refers to delay_us.o(i.delay_us) for delay_us
    dht11.o(i.DHT11_ReadPin) refers to stm32f10x_gpio.o(i.GPIO_ReadInputDataBit) for GPIO_ReadInputDataBit
    dht11.o(i.DHT11_WritePin) refers to stm32f10x_gpio.o(i.GPIO_SetBits) for GPIO_SetBits
    dht11.o(i.DHT11_WritePin) refers to stm32f10x_gpio.o(i.GPIO_ResetBits) for GPIO_ResetBits
    ds18b20.o(i.DS18B20_Init) refers to stm32f10x_rcc.o(i.RCC_APB2PeriphClockCmd) for RCC_APB2PeriphClockCmd
    ds18b20.o(i.DS18B20_Init) refers to ds18b20.o(i.DS18B20_PinOut) for DS18B20_PinOut
    ds18b20.o(i.DS18B20_Init) refers to ds18b20.o(i.DS18B20_WritePin) for DS18B20_WritePin
    ds18b20.o(i.DS18B20_PinIn) refers to stm32f10x_gpio.o(i.GPIO_Init) for GPIO_Init
    ds18b20.o(i.DS18B20_PinOut) refers to stm32f10x_gpio.o(i.GPIO_Init) for GPIO_Init
    ds18b20.o(i.DS18B20_ReadBit) refers to ds18b20.o(i.DS18B20_PinOut) for DS18B20_PinOut
    ds18b20.o(i.DS18B20_ReadBit) refers to ds18b20.o(i.DS18B20_WritePin) for DS18B20_WritePin
    ds18b20.o(i.DS18B20_ReadBit) refers to delay_us.o(i.delay_us) for delay_us
    ds18b20.o(i.DS18B20_ReadBit) refers to ds18b20.o(i.DS18B20_PinIn) for DS18B20_PinIn
    ds18b20.o(i.DS18B20_ReadBit) refers to ds18b20.o(i.DS18B20_ReadPin) for DS18B20_ReadPin
    ds18b20.o(i.DS18B20_ReadByte) refers to ds18b20.o(i.DS18B20_ReadBit) for DS18B20_ReadBit
    ds18b20.o(i.DS18B20_ReadPin) refers to stm32f10x_gpio.o(i.GPIO_ReadInputDataBit) for GPIO_ReadInputDataBit
    ds18b20.o(i.DS18B20_ReadTemp) refers to ds18b20.o(i.DS18B20_Reset) for DS18B20_Reset
    ds18b20.o(i.DS18B20_ReadTemp) refers to ds18b20.o(i.DS18B20_WriteByte) for DS18B20_WriteByte
    ds18b20.o(i.DS18B20_ReadTemp) refers to ds18b20.o(i.DS18B20_ReadByte) for DS18B20_ReadByte
    ds18b20.o(i.DS18B20_Reset) refers to ds18b20.o(i.DS18B20_PinOut) for DS18B20_PinOut
    ds18b20.o(i.DS18B20_Reset) refers to ds18b20.o(i.DS18B20_WritePin) for DS18B20_WritePin
    ds18b20.o(i.DS18B20_Reset) refers to delay_us.o(i.delay_us) for delay_us
    ds18b20.o(i.DS18B20_Reset) refers to ds18b20.o(i.DS18B20_PinIn) for DS18B20_PinIn
    ds18b20.o(i.DS18B20_Reset) refers to ds18b20.o(i.DS18B20_ReadPin) for DS18B20_ReadPin
    ds18b20.o(i.DS18B20_StartConvert) refers to ds18b20.o(i.DS18B20_Reset) for DS18B20_Reset
    ds18b20.o(i.DS18B20_StartConvert) refers to ds18b20.o(i.DS18B20_WriteByte) for DS18B20_WriteByte
    ds18b20.o(i.DS18B20_WriteBit) refers to ds18b20.o(i.DS18B20_PinOut) for DS18B20_PinOut
    ds18b20.o(i.DS18B20_WriteBit) refers to ds18b20.o(i.DS18B20_WritePin) for DS18B20_WritePin
    ds18b20.o(i.DS18B20_WriteBit) refers to delay_us.o(i.delay_us) for delay_us
    ds18b20.o(i.DS18B20_WriteByte) refers to ds18b20.o(i.DS18B20_WriteBit) for DS18B20_WriteBit
    ds18b20.o(i.DS18B20_WritePin) refers to stm32f10x_gpio.o(i.GPIO_SetBits) for GPIO_SetBits
    ds18b20.o(i.DS18B20_WritePin) refers to stm32f10x_gpio.o(i.GPIO_ResetBits) for GPIO_ResetBits
    infrared.o(i.EXTI0_IRQHandler) refers to stm32f10x_exti.o(i.EXTI_GetITStatus) for EXTI_GetITStatus
    infrared.o(i.EXTI0_IRQHandler) refers to stm32f10x_gpio.o(i.GPIO_ReadInputDataBit) for GPIO_ReadInputDataBit
    infrared.o(i.EXTI0_IRQHandler) refers to stm32f10x_exti.o(i.EXTI_ClearITPendingBit) for EXTI_ClearITPendingBit
    infrared.o(i.EXTI0_IRQHandler) refers to infrared.o(.data) for ir_received
    infrared.o(i.IR_Decode) refers to infrared.o(i.IR_PulseWidth) for IR_PulseWidth
    infrared.o(i.IR_Decode) refers to infrared.o(i.IR_InRange) for IR_InRange
    infrared.o(i.IR_EXTI_Disable) refers to stm32f10x_exti.o(i.EXTI_Init) for EXTI_Init
    infrared.o(i.IR_EXTI_Disable) refers to stm32f10x_exti.o(i.EXTI_ClearITPendingBit) for EXTI_ClearITPendingBit
    infrared.o(i.IR_EXTI_Enable) refers to stm32f10x_exti.o(i.EXTI_Init) for EXTI_Init
    infrared.o(i.IR_EXTI_Enable) refers to stm32f10x_exti.o(i.EXTI_ClearITPendingBit) for EXTI_ClearITPendingBit
    infrared.o(i.IR_EXTI_Enable) refers to infrared.o(.data) for ir_received
    infrared.o(i.IR_Init) refers to stm32f10x_rcc.o(i.RCC_APB2PeriphClockCmd) for RCC_APB2PeriphClockCmd
    infrared.o(i.IR_Init) refers to stm32f10x_gpio.o(i.GPIO_Init) for GPIO_Init
    infrared.o(i.IR_Init) refers to stm32f10x_gpio.o(i.GPIO_EXTILineConfig) for GPIO_EXTILineConfig
    infrared.o(i.IR_Init) refers to stm32f10x_exti.o(i.EXTI_Init) for EXTI_Init
    infrared.o(i.IR_Init) refers to misc.o(i.NVIC_Init) for NVIC_Init
    infrared.o(i.IR_PulseWidth) refers to infrared.o(i.IR_ReadPin) for IR_ReadPin
    infrared.o(i.IR_PulseWidth) refers to system_stm32f10x.o(.data) for SystemCoreClock
    infrared.o(i.IR_ReadPin) refers to stm32f10x_gpio.o(i.GPIO_ReadInputDataBit) for GPIO_ReadInputDataBit
    tlc5615.o(i.TLC5615_Init) refers to stm32f10x_rcc.o(i.RCC_APB2PeriphClockCmd) for RCC_APB2PeriphClockCmd
    tlc5615.o(i.TLC5615_Init) refers to stm32f10x_gpio.o(i.GPIO_Init) for GPIO_Init
    tlc5615.o(i.TLC5615_Init) refers to stm32f10x_gpio.o(i.GPIO_SetBits) for GPIO_SetBits
    tlc5615.o(i.TLC5615_Init) refers to stm32f10x_gpio.o(i.GPIO_ResetBits) for GPIO_ResetBits
    tlc5615.o(i.TLC5615_Init) refers to tlc5615.o(i.TLC5615_Send) for TLC5615_Send
    tlc5615.o(i.TLC5615_Send) refers to stm32f10x_gpio.o(i.GPIO_ResetBits) for GPIO_ResetBits
    tlc5615.o(i.TLC5615_Send) refers to stm32f10x_gpio.o(i.GPIO_SetBits) for GPIO_SetBits
    tlc5615.o(i.TLC5615_Send) refers to delay_us.o(i.delay_us) for delay_us
    tlc5615.o(i.TLC5615_SetValue) refers to tlc5615.o(i.TLC5615_Send) for TLC5615_Send
    tlc5615.o(i.TLC5615_SetVoltage) refers to tlc5615.o(i.TLC5615_SetValue) for TLC5615_SetValue
    rs232.o(i.RS232_Init) refers to stm32f10x_rcc.o(i.RCC_APB2PeriphClockCmd) for RCC_APB2PeriphClockCmd
    rs232.o(i.RS232_Init) refers to stm32f10x_rcc.o(i.RCC_APB1PeriphClockCmd) for RCC_APB1PeriphClockCmd
    rs232.o(i.RS232_Init) refers to stm32f10x_gpio.o(i.GPIO_PinRemapConfig) for GPIO_PinRemapConfig
    rs232.o(i.RS232_Init) refers to stm32f10x_gpio.o(i.GPIO_Init) for GPIO_Init
    rs232.o(i.RS232_Init) refers to stm32f10x_usart.o(i.USART_Init) for USART_Init
    rs232.o(i.RS232_Init) refers to stm32f10x_usart.o(i.USART_ITConfig) for USART_ITConfig
    rs232.o(i.RS232_Init) refers to misc.o(i.NVIC_Init) for NVIC_Init
    rs232.o(i.RS232_Init) refers to stm32f10x_usart.o(i.USART_Cmd) for USART_Cmd
    rs232.o(i.RS232_Init) refers to rs232.o(.data) for rx_count
    rs232.o(i.RS232_ReadByte) refers to rs232.o(.data) for rx_count
    rs232.o(i.RS232_ReadByte) refers to rs232.o(.bss) for rx_buf
    rs232.o(i.RS232_RxAvailable) refers to rs232.o(.data) for rx_count
    rs232.o(i.RS232_SendByte) refers to stm32f10x_usart.o(i.USART_GetFlagStatus) for USART_GetFlagStatus
    rs232.o(i.RS232_SendByte) refers to stm32f10x_usart.o(i.USART_SendData) for USART_SendData
    rs232.o(i.RS232_SendString) refers to rs232.o(i.RS232_SendByte) for RS232_SendByte
    rs232.o(i.USART3_IRQHandler) refers to stm32f10x_usart.o(i.USART_GetITStatus) for USART_GetITStatus
    rs232.o(i.USART3_IRQHandler) refers to stm32f10x_usart.o(i.USART_ReceiveData) for USART_ReceiveData
    rs232.o(i.USART3_IRQHandler) refers to rs232.o(.data) for rx_count
    rs232.o(i.USART3_IRQHandler) refers to rs232.o(.bss) for rx_buf
    rs485.o(i.RS485_Init) refers to stm32f10x_rcc.o(i.RCC_APB2PeriphClockCmd) for RCC_APB2PeriphClockCmd
    rs485.o(i.RS485_Init) refers to stm32f10x_rcc.o(i.RCC_APB1PeriphClockCmd) for RCC_APB1PeriphClockCmd
    rs485.o(i.RS485_Init) refers to stm32f10x_gpio.o(i.GPIO_Init) for GPIO_Init
    rs485.o(i.RS485_Init) refers to rs485.o(i.RS485_SetRX) for RS485_SetRX
    rs485.o(i.RS485_Init) refers to stm32f10x_usart.o(i.USART_Init) for USART_Init
    rs485.o(i.RS485_Init) refers to stm32f10x_usart.o(i.USART_ITConfig) for USART_ITConfig
    rs485.o(i.RS485_Init) refers to misc.o(i.NVIC_Init) for NVIC_Init
    rs485.o(i.RS485_Init) refers to stm32f10x_usart.o(i.USART_Cmd) for USART_Cmd
    rs485.o(i.RS485_Init) refers to rs485.o(.data) for rx_count
    rs485.o(i.RS485_ReadByte) refers to rs485.o(.data) for rx_count
    rs485.o(i.RS485_ReadByte) refers to rs485.o(.bss) for rx_buf
    rs485.o(i.RS485_RxAvailable) refers to rs485.o(.data) for rx_count
    rs485.o(i.RS485_SendByte) refers to rs485.o(i.RS485_SetTX) for RS485_SetTX
    rs485.o(i.RS485_SendByte) refers to stm32f10x_usart.o(i.USART_GetFlagStatus) for USART_GetFlagStatus
    rs485.o(i.RS485_SendByte) refers to stm32f10x_usart.o(i.USART_SendData) for USART_SendData
    rs485.o(i.RS485_SendByte) refers to rs485.o(i.RS485_SetRX) for RS485_SetRX
    rs485.o(i.RS485_SendString) refers to rs485.o(i.RS485_SendByte) for RS485_SendByte
    rs485.o(i.RS485_SetRX) refers to stm32f10x_gpio.o(i.GPIO_ResetBits) for GPIO_ResetBits
    rs485.o(i.RS485_SetTX) refers to stm32f10x_gpio.o(i.GPIO_SetBits) for GPIO_SetBits
    rs485.o(i.UART4_IRQHandler) refers to stm32f10x_usart.o(i.USART_GetITStatus) for USART_GetITStatus
    rs485.o(i.UART4_IRQHandler) refers to stm32f10x_usart.o(i.USART_ReceiveData) for USART_ReceiveData
    rs485.o(i.UART4_IRQHandler) refers to rs485.o(.data) for rx_count
    rs485.o(i.UART4_IRQHandler) refers to rs485.o(.bss) for rx_buf
    relay.o(i.Relay_Init) refers to stm32f10x_rcc.o(i.RCC_APB2PeriphClockCmd) for RCC_APB2PeriphClockCmd
    relay.o(i.Relay_Init) refers to stm32f10x_gpio.o(i.GPIO_Init) for GPIO_Init
    relay.o(i.Relay_Init) refers to stm32f10x_gpio.o(i.GPIO_ResetBits) for GPIO_ResetBits
    relay.o(i.Relay_Set) refers to stm32f10x_gpio.o(i.GPIO_SetBits) for GPIO_SetBits
    relay.o(i.Relay_Set) refers to stm32f10x_gpio.o(i.GPIO_ResetBits) for GPIO_ResetBits
    relay.o(i.Relay_Toggle) refers to stm32f10x_gpio.o(i.GPIO_ReadOutputDataBit) for GPIO_ReadOutputDataBit
    relay.o(i.Relay_Toggle) refers to stm32f10x_gpio.o(i.GPIO_ResetBits) for GPIO_ResetBits
    relay.o(i.Relay_Toggle) refers to stm32f10x_gpio.o(i.GPIO_SetBits) for GPIO_SetBits
    stepper.o(i.Stepper_Init) refers to stm32f10x_rcc.o(i.RCC_APB2PeriphClockCmd) for RCC_APB2PeriphClockCmd
    stepper.o(i.Stepper_Init) refers to stm32f10x_gpio.o(i.GPIO_Init) for GPIO_Init
    stepper.o(i.Stepper_Init) refers to stm32f10x_gpio.o(i.GPIO_SetBits) for GPIO_SetBits
    stepper.o(i.Stepper_Init) refers to delay.o(i.delay_ms) for delay_ms
    stepper.o(i.Stepper_Init) refers to stepper.o(i.Stepper_Stop) for Stepper_Stop
    stepper.o(i.Stepper_Output) refers to stm32f10x_gpio.o(i.GPIO_SetBits) for GPIO_SetBits
    stepper.o(i.Stepper_Output) refers to stm32f10x_gpio.o(i.GPIO_ResetBits) for GPIO_ResetBits
    stepper.o(i.Stepper_StepCCW) refers to _printf_percent.o(.ARM.Collect$$_printf_percent$$00000000) for _printf_percent
    stepper.o(i.Stepper_StepCCW) refers to _printf_d.o(.ARM.Collect$$_printf_percent$$00000009) for _printf_d
    stepper.o(i.Stepper_StepCCW) refers to _printf_dec.o(.text) for _printf_int_dec
    stepper.o(i.Stepper_StepCCW) refers to noretval__2printf.o(.text) for __2printf
    stepper.o(i.Stepper_StepCCW) refers to stepper.o(i.Stepper_Output) for Stepper_Output
    stepper.o(i.Stepper_StepCCW) refers to delay.o(i.delay_ms) for delay_ms
    stepper.o(i.Stepper_StepCCW) refers to stepper.o(i.Stepper_Stop) for Stepper_Stop
    stepper.o(i.Stepper_StepCCW) refers to stepper.o(.constdata) for step_table
    stepper.o(i.Stepper_StepCW) refers to _printf_percent.o(.ARM.Collect$$_printf_percent$$00000000) for _printf_percent
    stepper.o(i.Stepper_StepCW) refers to _printf_d.o(.ARM.Collect$$_printf_percent$$00000009) for _printf_d
    stepper.o(i.Stepper_StepCW) refers to _printf_dec.o(.text) for _printf_int_dec
    stepper.o(i.Stepper_StepCW) refers to noretval__2printf.o(.text) for __2printf
    stepper.o(i.Stepper_StepCW) refers to stepper.o(i.Stepper_Output) for Stepper_Output
    stepper.o(i.Stepper_StepCW) refers to delay.o(i.delay_ms) for delay_ms
    stepper.o(i.Stepper_StepCW) refers to stepper.o(i.Stepper_Stop) for Stepper_Stop
    stepper.o(i.Stepper_StepCW) refers to stepper.o(.constdata) for step_table
    stepper.o(i.Stepper_Stop) refers to stm32f10x_gpio.o(i.GPIO_ResetBits) for GPIO_ResetBits
    encoder.o(i.ENC_GetCount) refers to encoder.o(.data) for enc_count
    encoder.o(i.ENC_Init) refers to stm32f10x_rcc.o(i.RCC_APB2PeriphClockCmd) for RCC_APB2PeriphClockCmd
    encoder.o(i.ENC_Init) refers to stm32f10x_gpio.o(i.GPIO_Init) for GPIO_Init
    encoder.o(i.ENC_Init) refers to stm32f10x_gpio.o(i.GPIO_EXTILineConfig) for GPIO_EXTILineConfig
    encoder.o(i.ENC_Init) refers to stm32f10x_exti.o(i.EXTI_Init) for EXTI_Init
    encoder.o(i.ENC_Init) refers to misc.o(i.NVIC_Init) for NVIC_Init
    encoder.o(i.ENC_Init) refers to encoder.o(.data) for enc_count
    encoder.o(i.ENC_Reset) refers to encoder.o(.data) for enc_count
    encoder.o(i.ENC_Z_IsPressed) refers to stm32f10x_gpio.o(i.GPIO_ReadInputDataBit) for GPIO_ReadInputDataBit
    encoder.o(i.EXTI9_5_IRQHandler) refers to stm32f10x_exti.o(i.EXTI_GetITStatus) for EXTI_GetITStatus
    encoder.o(i.EXTI9_5_IRQHandler) refers to stm32f10x_gpio.o(i.GPIO_ReadInputDataBit) for GPIO_ReadInputDataBit
    encoder.o(i.EXTI9_5_IRQHandler) refers to stm32f10x_exti.o(i.EXTI_ClearITPendingBit) for EXTI_ClearITPendingBit
    encoder.o(i.EXTI9_5_IRQHandler) refers to encoder.o(.data) for enc_count
    lcd12864.o(i.LCD12864_Backlight) refers to stm32f10x_gpio.o(i.GPIO_SetBits) for GPIO_SetBits
    lcd12864.o(i.LCD12864_Backlight) refers to stm32f10x_gpio.o(i.GPIO_ResetBits) for GPIO_ResetBits
    lcd12864.o(i.LCD12864_Clear) refers to lcd12864.o(i.LCD12864_WriteCmd) for LCD12864_WriteCmd
    lcd12864.o(i.LCD12864_Clear) refers to delay.o(i.delay_ms) for delay_ms
    lcd12864.o(i.LCD12864_DisplayFloat) refers to fflt_clz.o(x$fpl$ffltu) for __aeabi_ui2f
    lcd12864.o(i.LCD12864_DisplayFloat) refers to fmul.o(x$fpl$fmul) for __aeabi_fmul
    lcd12864.o(i.LCD12864_DisplayFloat) refers to ffix.o(x$fpl$ffix) for __aeabi_f2iz
    lcd12864.o(i.LCD12864_DisplayFloat) refers to lcd12864.o(i.LCD12864_DisplayNum) for LCD12864_DisplayNum
    lcd12864.o(i.LCD12864_DisplayFloat) refers to lcd12864.o(i.LCD12864_WriteChar) for LCD12864_WriteChar
    lcd12864.o(i.LCD12864_DisplayNum) refers to lcd12864.o(i.LCD12864_WriteData) for LCD12864_WriteData
    lcd12864.o(i.LCD12864_Init) refers to stm32f10x_rcc.o(i.RCC_APB2PeriphClockCmd) for RCC_APB2PeriphClockCmd
    lcd12864.o(i.LCD12864_Init) refers to stm32f10x_gpio.o(i.GPIO_Init) for GPIO_Init
    lcd12864.o(i.LCD12864_Init) refers to stm32f10x_gpio.o(i.GPIO_ResetBits) for GPIO_ResetBits
    lcd12864.o(i.LCD12864_Init) refers to stm32f10x_gpio.o(i.GPIO_SetBits) for GPIO_SetBits
    lcd12864.o(i.LCD12864_Init) refers to delay.o(i.delay_ms) for delay_ms
    lcd12864.o(i.LCD12864_Init) refers to lcd12864.o(i.LCD12864_WriteCmd) for LCD12864_WriteCmd
    lcd12864.o(i.LCD12864_SendByte) refers to stm32f10x_gpio.o(i.GPIO_SetBits) for GPIO_SetBits
    lcd12864.o(i.LCD12864_SendByte) refers to stm32f10x_gpio.o(i.GPIO_ResetBits) for GPIO_ResetBits
    lcd12864.o(i.LCD12864_SetPos) refers to lcd12864.o(i.LCD12864_WriteCmd) for LCD12864_WriteCmd
    lcd12864.o(i.LCD12864_SetPos) refers to lcd12864.o(.constdata) for row_base
    lcd12864.o(i.LCD12864_WriteChar) refers to lcd12864.o(i.LCD12864_WriteData) for LCD12864_WriteData
    lcd12864.o(i.LCD12864_WriteCmd) refers to stm32f10x_gpio.o(i.GPIO_SetBits) for GPIO_SetBits
    lcd12864.o(i.LCD12864_WriteCmd) refers to lcd12864.o(i.LCD12864_SendByte) for LCD12864_SendByte
    lcd12864.o(i.LCD12864_WriteCmd) refers to stm32f10x_gpio.o(i.GPIO_ResetBits) for GPIO_ResetBits
    lcd12864.o(i.LCD12864_WriteCmd) refers to delay_us.o(i.delay_us) for delay_us
    lcd12864.o(i.LCD12864_WriteData) refers to stm32f10x_gpio.o(i.GPIO_SetBits) for GPIO_SetBits
    lcd12864.o(i.LCD12864_WriteData) refers to lcd12864.o(i.LCD12864_SendByte) for LCD12864_SendByte
    lcd12864.o(i.LCD12864_WriteData) refers to stm32f10x_gpio.o(i.GPIO_ResetBits) for GPIO_ResetBits
    lcd12864.o(i.LCD12864_WriteData) refers to delay_us.o(i.delay_us) for delay_us
    lcd12864.o(i.LCD12864_WriteString) refers to lcd12864.o(i.LCD12864_WriteData) for LCD12864_WriteData
    ch451.o(i.CH451_Clear) refers to ch451.o(i.CH451_SetDigit) for CH451_SetDigit
    ch451.o(i.CH451_DisplayNum) refers to ch451.o(i.CH451_SetDigit) for CH451_SetDigit
    ch451.o(i.CH451_Init) refers to stm32f10x_rcc.o(i.RCC_APB2PeriphClockCmd) for RCC_APB2PeriphClockCmd
    ch451.o(i.CH451_Init) refers to stm32f10x_gpio.o(i.GPIO_Init) for GPIO_Init
    ch451.o(i.CH451_Init) refers to stm32f10x_gpio.o(i.GPIO_ResetBits) for GPIO_ResetBits
    ch451.o(i.CH451_Init) refers to delay_us.o(i.delay_us) for delay_us
    ch451.o(i.CH451_Init) refers to stm32f10x_gpio.o(i.GPIO_SetBits) for GPIO_SetBits
    ch451.o(i.CH451_Init) refers to ch451.o(i.CH451_WriteCmd) for CH451_WriteCmd
    ch451.o(i.CH451_Init) refers to ch451.o(i.CH451_Clear) for CH451_Clear
    ch451.o(i.CH451_ReadKey) refers to ch451.o(i.CH451_WriteCmd) for CH451_WriteCmd
    ch451.o(i.CH451_ReadKey) refers to delay_us.o(i.delay_us) for delay_us
    ch451.o(i.CH451_ReadKey) refers to stm32f10x_gpio.o(i.GPIO_ReadInputDataBit) for GPIO_ReadInputDataBit
    ch451.o(i.CH451_ReadKey) refers to stm32f10x_gpio.o(i.GPIO_ResetBits) for GPIO_ResetBits
    ch451.o(i.CH451_ReadKey) refers to stm32f10x_gpio.o(i.GPIO_SetBits) for GPIO_SetBits
    ch451.o(i.CH451_SetBrightness) refers to ch451.o(i.CH451_WriteCmd) for CH451_WriteCmd
    ch451.o(i.CH451_SetDigit) refers to ch451.o(i.CH451_WriteCmd) for CH451_WriteCmd
    ch451.o(i.CH451_SetRaw) refers to ch451.o(i.CH451_WriteCmd) for CH451_WriteCmd
    ch451.o(i.CH451_WriteCmd) refers to stm32f10x_gpio.o(i.GPIO_ResetBits) for GPIO_ResetBits
    ch451.o(i.CH451_WriteCmd) refers to stm32f10x_gpio.o(i.GPIO_SetBits) for GPIO_SetBits
    ch451.o(i.CH451_WriteCmd) refers to delay_us.o(i.delay_us) for delay_us
    timer_pwm.o(i.LED_PWM_Init) refers to stm32f10x_rcc.o(i.RCC_APB2PeriphClockCmd) for RCC_APB2PeriphClockCmd
    timer_pwm.o(i.LED_PWM_Init) refers to stm32f10x_gpio.o(i.GPIO_Init) for GPIO_Init
    timer_pwm.o(i.LED_PWM_Init) refers to stm32f10x_tim.o(i.TIM_TimeBaseInit) for TIM_TimeBaseInit
    timer_pwm.o(i.LED_PWM_Init) refers to stm32f10x_tim.o(i.TIM_OC1Init) for TIM_OC1Init
    timer_pwm.o(i.LED_PWM_Init) refers to stm32f10x_tim.o(i.TIM_CtrlPWMOutputs) for TIM_CtrlPWMOutputs
    timer_pwm.o(i.LED_PWM_Init) refers to stm32f10x_tim.o(i.TIM_Cmd) for TIM_Cmd
    timer_pwm.o(i.LED_PWM_SetBrightness) refers to stm32f10x_tim.o(i.TIM_SetCompare1) for TIM_SetCompare1
    timer_pwm.o(i.Motor_Init) refers to stm32f10x_rcc.o(i.RCC_APB2PeriphClockCmd) for RCC_APB2PeriphClockCmd
    timer_pwm.o(i.Motor_Init) refers to stm32f10x_rcc.o(i.RCC_APB1PeriphClockCmd) for RCC_APB1PeriphClockCmd
    timer_pwm.o(i.Motor_Init) refers to stm32f10x_gpio.o(i.GPIO_Init) for GPIO_Init
    timer_pwm.o(i.Motor_Init) refers to stm32f10x_tim.o(i.TIM_TimeBaseInit) for TIM_TimeBaseInit
    timer_pwm.o(i.Motor_Init) refers to stm32f10x_tim.o(i.TIM_OC1Init) for TIM_OC1Init
    timer_pwm.o(i.Motor_Init) refers to stm32f10x_tim.o(i.TIM_OC2Init) for TIM_OC2Init
    timer_pwm.o(i.Motor_Init) refers to stm32f10x_tim.o(i.TIM_Cmd) for TIM_Cmd
    timer_pwm.o(i.Motor_SetDir) refers to stm32f10x_tim.o(i.TIM_SetCompare2) for TIM_SetCompare2
    timer_pwm.o(i.Motor_SetDir) refers to stm32f10x_tim.o(i.TIM_SetCompare1) for TIM_SetCompare1
    timer_pwm.o(i.Motor_SetDir) refers to timer_pwm.o(.data) for motor_speed_ccr
    timer_pwm.o(i.Motor_SetSpeed) refers to stm32f10x_tim.o(i.TIM_SetCompare1) for TIM_SetCompare1
    timer_pwm.o(i.Motor_SetSpeed) refers to timer_pwm.o(.data) for motor_speed_ccr
    timer_pwm.o(i.Motor_Stop) refers to stm32f10x_tim.o(i.TIM_SetCompare1) for TIM_SetCompare1
    timer_pwm.o(i.Motor_Stop) refers to stm32f10x_tim.o(i.TIM_SetCompare2) for TIM_SetCompare2
    timer_pwm.o(i.TIM4_Servo_Init) refers to stm32f10x_tim.o(i.TIM_Cmd) for TIM_Cmd
    timer_pwm.o(i.TIM4_Servo_Init) refers to stm32f10x_rcc.o(i.RCC_APB2PeriphClockCmd) for RCC_APB2PeriphClockCmd
    timer_pwm.o(i.TIM4_Servo_Init) refers to stm32f10x_rcc.o(i.RCC_APB1PeriphClockCmd) for RCC_APB1PeriphClockCmd
    timer_pwm.o(i.TIM4_Servo_Init) refers to stm32f10x_gpio.o(i.GPIO_Init) for GPIO_Init
    timer_pwm.o(i.TIM4_Servo_Init) refers to stm32f10x_tim.o(i.TIM_TimeBaseInit) for TIM_TimeBaseInit
    timer_pwm.o(i.TIM4_Servo_Init) refers to stm32f10x_tim.o(i.TIM_OC3Init) for TIM_OC3Init
    timer_pwm.o(i.TIM4_Servo_Init) refers to stm32f10x_tim.o(i.TIM_SetCounter) for TIM_SetCounter
    timer_pwm.o(i.TIM4_Servo_SetAngle) refers to stm32f10x_tim.o(i.TIM_SetCompare3) for TIM_SetCompare3
    sensor_adc.o(i.ADC1_Init) refers to stm32f10x_rcc.o(i.RCC_APB2PeriphClockCmd) for RCC_APB2PeriphClockCmd
    sensor_adc.o(i.ADC1_Init) refers to stm32f10x_gpio.o(i.GPIO_Init) for GPIO_Init
    sensor_adc.o(i.ADC1_Init) refers to stm32f10x_rcc.o(i.RCC_APB2PeriphResetCmd) for RCC_APB2PeriphResetCmd
    sensor_adc.o(i.ADC1_Init) refers to stm32f10x_adc.o(i.ADC_DeInit) for ADC_DeInit
    sensor_adc.o(i.ADC1_Init) refers to stm32f10x_adc.o(i.ADC_Init) for ADC_Init
    sensor_adc.o(i.ADC1_Init) refers to stm32f10x_adc.o(i.ADC_Cmd) for ADC_Cmd
    sensor_adc.o(i.ADC1_Init) refers to stm32f10x_adc.o(i.ADC_ResetCalibration) for ADC_ResetCalibration
    sensor_adc.o(i.ADC1_Init) refers to stm32f10x_adc.o(i.ADC_GetResetCalibrationStatus) for ADC_GetResetCalibrationStatus
    sensor_adc.o(i.ADC1_Init) refers to stm32f10x_adc.o(i.ADC_StartCalibration) for ADC_StartCalibration
    sensor_adc.o(i.ADC1_Init) refers to stm32f10x_adc.o(i.ADC_GetCalibrationStatus) for ADC_GetCalibrationStatus
    sensor_adc.o(i.ADC1_ReadAvg) refers to sensor_adc.o(i.ADC1_ReadChannel) for ADC1_ReadChannel
    sensor_adc.o(i.ADC1_ReadChannel) refers to stm32f10x_adc.o(i.ADC_RegularChannelConfig) for ADC_RegularChannelConfig
    sensor_adc.o(i.ADC1_ReadChannel) refers to stm32f10x_adc.o(i.ADC_SoftwareStartConvCmd) for ADC_SoftwareStartConvCmd
    sensor_adc.o(i.ADC1_ReadChannel) refers to stm32f10x_adc.o(i.ADC_GetFlagStatus) for ADC_GetFlagStatus
    sensor_adc.o(i.ADC1_ReadChannel) refers to stm32f10x_adc.o(i.ADC_GetConversionValue) for ADC_GetConversionValue
    sensor_adc.o(i.Light_Percent) refers to sensor_adc.o(i.ADC1_ReadAvg) for ADC1_ReadAvg
    sensor_adc.o(i.Light_Read) refers to sensor_adc.o(i.ADC1_ReadChannel) for ADC1_ReadChannel
    sensor_adc.o(i.Thermistor_Read) refers to sensor_adc.o(i.ADC1_ReadChannel) for ADC1_ReadChannel
    delay_us.o(i.delay_us) refers to system_stm32f10x.o(.data) for SystemCoreClock
    heap_2.o(i.prvHeapInit) refers to heap_2.o(.bss) for ucHeap
    heap_2.o(i.prvHeapInit) refers to heap_2.o(.data) for xStart
    heap_2.o(i.pvPortMalloc) refers to tasks.o(i.vTaskSuspendAll) for vTaskSuspendAll
    heap_2.o(i.pvPortMalloc) refers to heap_2.o(i.prvHeapInit) for prvHeapInit
    heap_2.o(i.pvPortMalloc) refers to tasks.o(i.xTaskResumeAll) for xTaskResumeAll
    heap_2.o(i.pvPortMalloc) refers to heap_2.o(.data) for xHeapHasBeenInitialised
    heap_2.o(i.vPortFree) refers to tasks.o(i.vTaskSuspendAll) for vTaskSuspendAll
    heap_2.o(i.vPortFree) refers to tasks.o(i.xTaskResumeAll) for xTaskResumeAll
    heap_2.o(i.vPortFree) refers to heap_2.o(.data) for xStart
    heap_2.o(i.xPortGetFreeHeapSize) refers to heap_2.o(.data) for xFreeBytesRemaining
    port.o(.emb_text) refers to tasks.o(i.vTaskSwitchContext) for vTaskSwitchContext
    port.o(.emb_text) refers to tasks.o(.data) for pxCurrentTCB
    port.o(i.pxPortInitialiseStack) refers to port.o(i.prvTaskExitError) for prvTaskExitError
    port.o(i.vPortEnterCritical) refers to port.o(.data) for uxCriticalNesting
    port.o(i.vPortExitCritical) refers to port.o(.data) for uxCriticalNesting
    port.o(i.xPortStartScheduler) refers to port.o(i.vPortSetupTimerInterrupt) for vPortSetupTimerInterrupt
    port.o(i.xPortStartScheduler) refers to port.o(.emb_text) for __asm___6_port_c_39a90d8d__prvStartFirstTask
    port.o(i.xPortStartScheduler) refers to port.o(.data) for uxCriticalNesting
    port.o(i.xPortSysTickHandler) refers to tasks.o(i.xTaskIncrementTick) for xTaskIncrementTick
    queue.o(i.prvCopyDataFromQueue) refers to rt_memcpy_v6.o(.text) for __aeabi_memcpy
    queue.o(i.prvCopyDataToQueue) refers to rt_memcpy_v6.o(.text) for __aeabi_memcpy
    queue.o(i.prvInitialiseNewQueue) refers to queue.o(i.xQueueGenericReset) for xQueueGenericReset
    queue.o(i.prvIsQueueEmpty) refers to port.o(i.vPortEnterCritical) for vPortEnterCritical
    queue.o(i.prvIsQueueEmpty) refers to port.o(i.vPortExitCritical) for vPortExitCritical
    queue.o(i.prvIsQueueFull) refers to port.o(i.vPortEnterCritical) for vPortEnterCritical
    queue.o(i.prvIsQueueFull) refers to port.o(i.vPortExitCritical) for vPortExitCritical
    queue.o(i.prvUnlockQueue) refers to port.o(i.vPortEnterCritical) for vPortEnterCritical
    queue.o(i.prvUnlockQueue) refers to tasks.o(i.xTaskRemoveFromEventList) for xTaskRemoveFromEventList
    queue.o(i.prvUnlockQueue) refers to tasks.o(i.vTaskMissedYield) for vTaskMissedYield
    queue.o(i.prvUnlockQueue) refers to port.o(i.vPortExitCritical) for vPortExitCritical
    queue.o(i.uxQueueMessagesWaiting) refers to port.o(i.vPortEnterCritical) for vPortEnterCritical
    queue.o(i.uxQueueMessagesWaiting) refers to port.o(i.vPortExitCritical) for vPortExitCritical
    queue.o(i.uxQueueSpacesAvailable) refers to port.o(i.vPortEnterCritical) for vPortEnterCritical
    queue.o(i.uxQueueSpacesAvailable) refers to port.o(i.vPortExitCritical) for vPortExitCritical
    queue.o(i.vQueueDelete) refers to heap_2.o(i.vPortFree) for vPortFree
    queue.o(i.xQueueGenericCreate) refers to heap_2.o(i.pvPortMalloc) for pvPortMalloc
    queue.o(i.xQueueGenericCreate) refers to queue.o(i.prvInitialiseNewQueue) for prvInitialiseNewQueue
    queue.o(i.xQueueGenericReceive) refers to port.o(i.vPortEnterCritical) for vPortEnterCritical
    queue.o(i.xQueueGenericReceive) refers to queue.o(i.prvCopyDataFromQueue) for prvCopyDataFromQueue
    queue.o(i.xQueueGenericReceive) refers to tasks.o(i.xTaskRemoveFromEventList) for xTaskRemoveFromEventList
    queue.o(i.xQueueGenericReceive) refers to port.o(i.vPortExitCritical) for vPortExitCritical
    queue.o(i.xQueueGenericReceive) refers to tasks.o(i.vTaskSetTimeOutState) for vTaskSetTimeOutState
    queue.o(i.xQueueGenericReceive) refers to tasks.o(i.vTaskSuspendAll) for vTaskSuspendAll
    queue.o(i.xQueueGenericReceive) refers to tasks.o(i.xTaskCheckForTimeOut) for xTaskCheckForTimeOut
    queue.o(i.xQueueGenericReceive) refers to queue.o(i.prvIsQueueEmpty) for prvIsQueueEmpty
    queue.o(i.xQueueGenericReceive) refers to tasks.o(i.vTaskPlaceOnEventList) for vTaskPlaceOnEventList
    queue.o(i.xQueueGenericReceive) refers to queue.o(i.prvUnlockQueue) for prvUnlockQueue
    queue.o(i.xQueueGenericReceive) refers to tasks.o(i.xTaskResumeAll) for xTaskResumeAll
    queue.o(i.xQueueGenericReset) refers to port.o(i.vPortEnterCritical) for vPortEnterCritical
    queue.o(i.xQueueGenericReset) refers to tasks.o(i.xTaskRemoveFromEventList) for xTaskRemoveFromEventList
    queue.o(i.xQueueGenericReset) refers to list.o(i.vListInitialise) for vListInitialise
    queue.o(i.xQueueGenericReset) refers to port.o(i.vPortExitCritical) for vPortExitCritical
    queue.o(i.xQueueGenericSend) refers to port.o(i.vPortEnterCritical) for vPortEnterCritical
    queue.o(i.xQueueGenericSend) refers to queue.o(i.prvCopyDataToQueue) for prvCopyDataToQueue
    queue.o(i.xQueueGenericSend) refers to tasks.o(i.xTaskRemoveFromEventList) for xTaskRemoveFromEventList
    queue.o(i.xQueueGenericSend) refers to port.o(i.vPortExitCritical) for vPortExitCritical
    queue.o(i.xQueueGenericSend) refers to tasks.o(i.vTaskSetTimeOutState) for vTaskSetTimeOutState
    queue.o(i.xQueueGenericSend) refers to tasks.o(i.vTaskSuspendAll) for vTaskSuspendAll
    queue.o(i.xQueueGenericSend) refers to tasks.o(i.xTaskCheckForTimeOut) for xTaskCheckForTimeOut
    queue.o(i.xQueueGenericSend) refers to queue.o(i.prvIsQueueFull) for prvIsQueueFull
    queue.o(i.xQueueGenericSend) refers to tasks.o(i.vTaskPlaceOnEventList) for vTaskPlaceOnEventList
    queue.o(i.xQueueGenericSend) refers to queue.o(i.prvUnlockQueue) for prvUnlockQueue
    queue.o(i.xQueueGenericSend) refers to tasks.o(i.xTaskResumeAll) for xTaskResumeAll
    queue.o(i.xQueueGenericSendFromISR) refers to queue.o(i.prvCopyDataToQueue) for prvCopyDataToQueue
    queue.o(i.xQueueGenericSendFromISR) refers to tasks.o(i.xTaskRemoveFromEventList) for xTaskRemoveFromEventList
    queue.o(i.xQueueGiveFromISR) refers to tasks.o(i.xTaskRemoveFromEventList) for xTaskRemoveFromEventList
    queue.o(i.xQueuePeekFromISR) refers to queue.o(i.prvCopyDataFromQueue) for prvCopyDataFromQueue
    queue.o(i.xQueueReceiveFromISR) refers to queue.o(i.prvCopyDataFromQueue) for prvCopyDataFromQueue
    queue.o(i.xQueueReceiveFromISR) refers to tasks.o(i.xTaskRemoveFromEventList) for xTaskRemoveFromEventList
    tasks.o(i.pcTaskGetName) refers to tasks.o(.data) for pxCurrentTCB
    tasks.o(i.prvAddCurrentTaskToDelayedList) refers to list.o(i.uxListRemove) for uxListRemove
    tasks.o(i.prvAddCurrentTaskToDelayedList) refers to list.o(i.vListInsertEnd) for vListInsertEnd
    tasks.o(i.prvAddCurrentTaskToDelayedList) refers to list.o(i.vListInsert) for vListInsert
    tasks.o(i.prvAddCurrentTaskToDelayedList) refers to tasks.o(.data) for xTickCount
    tasks.o(i.prvAddCurrentTaskToDelayedList) refers to tasks.o(.bss) for xSuspendedTaskList
    tasks.o(i.prvAddNewTaskToReadyList) refers to port.o(i.vPortEnterCritical) for vPortEnterCritical
    tasks.o(i.prvAddNewTaskToReadyList) refers to tasks.o(i.prvInitialiseTaskLists) for prvInitialiseTaskLists
    tasks.o(i.prvAddNewTaskToReadyList) refers to list.o(i.vListInsertEnd) for vListInsertEnd
    tasks.o(i.prvAddNewTaskToReadyList) refers to port.o(i.vPortExitCritical) for vPortExitCritical
    tasks.o(i.prvAddNewTaskToReadyList) refers to tasks.o(.data) for uxCurrentNumberOfTasks
    tasks.o(i.prvAddNewTaskToReadyList) refers to tasks.o(.bss) for pxReadyTasksLists
    tasks.o(i.prvCheckTasksWaitingTermination) refers to tasks.o(i.vTaskSuspendAll) for vTaskSuspendAll
    tasks.o(i.prvCheckTasksWaitingTermination) refers to tasks.o(i.xTaskResumeAll) for xTaskResumeAll
    tasks.o(i.prvCheckTasksWaitingTermination) refers to port.o(i.vPortEnterCritical) for vPortEnterCritical
    tasks.o(i.prvCheckTasksWaitingTermination) refers to list.o(i.uxListRemove) for uxListRemove
    tasks.o(i.prvCheckTasksWaitingTermination) refers to port.o(i.vPortExitCritical) for vPortExitCritical
    tasks.o(i.prvCheckTasksWaitingTermination) refers to tasks.o(i.prvDeleteTCB) for prvDeleteTCB
    tasks.o(i.prvCheckTasksWaitingTermination) refers to tasks.o(.bss) for xTasksWaitingTermination
    tasks.o(i.prvCheckTasksWaitingTermination) refers to tasks.o(.data) for uxCurrentNumberOfTasks
    tasks.o(i.prvDeleteTCB) refers to heap_2.o(i.vPortFree) for vPortFree
    tasks.o(i.prvIdleTask) refers to tasks.o(i.prvCheckTasksWaitingTermination) for prvCheckTasksWaitingTermination
    tasks.o(i.prvIdleTask) refers to tasks.o(.bss) for pxReadyTasksLists
    tasks.o(i.prvInitialiseNewTask) refers to list.o(i.vListInitialiseItem) for vListInitialiseItem
    tasks.o(i.prvInitialiseNewTask) refers to port.o(i.pxPortInitialiseStack) for pxPortInitialiseStack
    tasks.o(i.prvInitialiseTaskLists) refers to list.o(i.vListInitialise) for vListInitialise
    tasks.o(i.prvInitialiseTaskLists) refers to tasks.o(.bss) for pxReadyTasksLists
    tasks.o(i.prvInitialiseTaskLists) refers to tasks.o(.data) for pxDelayedTaskList
    tasks.o(i.prvResetNextTaskUnblockTime) refers to tasks.o(.data) for pxDelayedTaskList
    tasks.o(i.prvTaskIsTaskSuspended) refers to tasks.o(.bss) for xSuspendedTaskList
    tasks.o(i.ulTaskNotifyTake) refers to port.o(i.vPortEnterCritical) for vPortEnterCritical
    tasks.o(i.ulTaskNotifyTake) refers to tasks.o(i.prvAddCurrentTaskToDelayedList) for prvAddCurrentTaskToDelayedList
    tasks.o(i.ulTaskNotifyTake) refers to port.o(i.vPortExitCritical) for vPortExitCritical
    tasks.o(i.ulTaskNotifyTake) refers to tasks.o(.data) for pxCurrentTCB
    tasks.o(i.uxTaskGetNumberOfTasks) refers to tasks.o(.data) for uxCurrentNumberOfTasks
    tasks.o(i.uxTaskPriorityGet) refers to port.o(i.vPortEnterCritical) for vPortEnterCritical
    tasks.o(i.uxTaskPriorityGet) refers to port.o(i.vPortExitCritical) for vPortExitCritical
    tasks.o(i.uxTaskPriorityGet) refers to tasks.o(.data) for pxCurrentTCB
    tasks.o(i.uxTaskPriorityGetFromISR) refers to tasks.o(.data) for pxCurrentTCB
    tasks.o(i.uxTaskResetEventItemValue) refers to tasks.o(.data) for pxCurrentTCB
    tasks.o(i.vTaskDelay) refers to tasks.o(i.vTaskSuspendAll) for vTaskSuspendAll
    tasks.o(i.vTaskDelay) refers to tasks.o(i.prvAddCurrentTaskToDelayedList) for prvAddCurrentTaskToDelayedList
    tasks.o(i.vTaskDelay) refers to tasks.o(i.xTaskResumeAll) for xTaskResumeAll
    tasks.o(i.vTaskDelayUntil) refers to tasks.o(i.vTaskSuspendAll) for vTaskSuspendAll
    tasks.o(i.vTaskDelayUntil) refers to tasks.o(i.prvAddCurrentTaskToDelayedList) for prvAddCurrentTaskToDelayedList
    tasks.o(i.vTaskDelayUntil) refers to tasks.o(i.xTaskResumeAll) for xTaskResumeAll
    tasks.o(i.vTaskDelayUntil) refers to tasks.o(.data) for xTickCount
    tasks.o(i.vTaskDelete) refers to port.o(i.vPortEnterCritical) for vPortEnterCritical
    tasks.o(i.vTaskDelete) refers to list.o(i.uxListRemove) for uxListRemove
    tasks.o(i.vTaskDelete) refers to list.o(i.vListInsertEnd) for vListInsertEnd
    tasks.o(i.vTaskDelete) refers to tasks.o(i.prvDeleteTCB) for prvDeleteTCB
    tasks.o(i.vTaskDelete) refers to tasks.o(i.prvResetNextTaskUnblockTime) for prvResetNextTaskUnblockTime
    tasks.o(i.vTaskDelete) refers to port.o(i.vPortExitCritical) for vPortExitCritical
    tasks.o(i.vTaskDelete) refers to tasks.o(.data) for pxCurrentTCB
    tasks.o(i.vTaskDelete) refers to tasks.o(.bss) for pxReadyTasksLists
    tasks.o(i.vTaskEndScheduler) refers to port.o(i.vPortEndScheduler) for vPortEndScheduler
    tasks.o(i.vTaskEndScheduler) refers to tasks.o(.data) for xSchedulerRunning
    tasks.o(i.vTaskMissedYield) refers to tasks.o(.data) for xYieldPending
    tasks.o(i.vTaskNotifyGiveFromISR) refers to list.o(i.uxListRemove) for uxListRemove
    tasks.o(i.vTaskNotifyGiveFromISR) refers to list.o(i.vListInsertEnd) for vListInsertEnd
    tasks.o(i.vTaskNotifyGiveFromISR) refers to tasks.o(.data) for uxSchedulerSuspended
    tasks.o(i.vTaskNotifyGiveFromISR) refers to tasks.o(.bss) for pxReadyTasksLists
    tasks.o(i.vTaskPlaceOnEventList) refers to list.o(i.vListInsert) for vListInsert
    tasks.o(i.vTaskPlaceOnEventList) refers to tasks.o(i.prvAddCurrentTaskToDelayedList) for prvAddCurrentTaskToDelayedList
    tasks.o(i.vTaskPlaceOnEventList) refers to tasks.o(.data) for pxCurrentTCB
    tasks.o(i.vTaskPlaceOnUnorderedEventList) refers to list.o(i.vListInsertEnd) for vListInsertEnd
    tasks.o(i.vTaskPlaceOnUnorderedEventList) refers to tasks.o(i.prvAddCurrentTaskToDelayedList) for prvAddCurrentTaskToDelayedList
    tasks.o(i.vTaskPlaceOnUnorderedEventList) refers to tasks.o(.data) for pxCurrentTCB
    tasks.o(i.vTaskPrioritySet) refers to port.o(i.vPortEnterCritical) for vPortEnterCritical
    tasks.o(i.vTaskPrioritySet) refers to list.o(i.uxListRemove) for uxListRemove
    tasks.o(i.vTaskPrioritySet) refers to list.o(i.vListInsertEnd) for vListInsertEnd
    tasks.o(i.vTaskPrioritySet) refers to port.o(i.vPortExitCritical) for vPortExitCritical
    tasks.o(i.vTaskPrioritySet) refers to tasks.o(.data) for pxCurrentTCB
    tasks.o(i.vTaskPrioritySet) refers to tasks.o(.bss) for pxReadyTasksLists
    tasks.o(i.vTaskResume) refers to port.o(i.vPortEnterCritical) for vPortEnterCritical
    tasks.o(i.vTaskResume) refers to tasks.o(i.prvTaskIsTaskSuspended) for prvTaskIsTaskSuspended
    tasks.o(i.vTaskResume) refers to list.o(i.uxListRemove) for uxListRemove
    tasks.o(i.vTaskResume) refers to list.o(i.vListInsertEnd) for vListInsertEnd
    tasks.o(i.vTaskResume) refers to port.o(i.vPortExitCritical) for vPortExitCritical
    tasks.o(i.vTaskResume) refers to tasks.o(.data) for pxCurrentTCB
    tasks.o(i.vTaskResume) refers to tasks.o(.bss) for pxReadyTasksLists
    tasks.o(i.vTaskSetTimeOutState) refers to tasks.o(.data) for xNumOfOverflows
    tasks.o(i.vTaskStartScheduler) refers to tasks.o(i.xTaskCreate) for xTaskCreate
    tasks.o(i.vTaskStartScheduler) refers to port.o(i.xPortStartScheduler) for xPortStartScheduler
    tasks.o(i.vTaskStartScheduler) refers to tasks.o(.data) for xIdleTaskHandle
    tasks.o(i.vTaskStartScheduler) refers to tasks.o(i.prvIdleTask) for prvIdleTask
    tasks.o(i.vTaskSuspend) refers to port.o(i.vPortEnterCritical) for vPortEnterCritical
    tasks.o(i.vTaskSuspend) refers to list.o(i.uxListRemove) for uxListRemove
    tasks.o(i.vTaskSuspend) refers to list.o(i.vListInsertEnd) for vListInsertEnd
    tasks.o(i.vTaskSuspend) refers to port.o(i.vPortExitCritical) for vPortExitCritical
    tasks.o(i.vTaskSuspend) refers to tasks.o(i.prvResetNextTaskUnblockTime) for prvResetNextTaskUnblockTime
    tasks.o(i.vTaskSuspend) refers to tasks.o(i.vTaskSwitchContext) for vTaskSwitchContext
    tasks.o(i.vTaskSuspend) refers to tasks.o(.data) for pxCurrentTCB
    tasks.o(i.vTaskSuspend) refers to tasks.o(.bss) for pxReadyTasksLists
    tasks.o(i.vTaskSuspendAll) refers to tasks.o(.data) for uxSchedulerSuspended
    tasks.o(i.vTaskSwitchContext) refers to tasks.o(.data) for uxSchedulerSuspended
    tasks.o(i.vTaskSwitchContext) refers to tasks.o(.bss) for pxReadyTasksLists
    tasks.o(i.xTaskCheckForTimeOut) refers to port.o(i.vPortEnterCritical) for vPortEnterCritical
    tasks.o(i.xTaskCheckForTimeOut) refers to tasks.o(i.vTaskSetTimeOutState) for vTaskSetTimeOutState
    tasks.o(i.xTaskCheckForTimeOut) refers to port.o(i.vPortExitCritical) for vPortExitCritical
    tasks.o(i.xTaskCheckForTimeOut) refers to tasks.o(.data) for xTickCount
    tasks.o(i.xTaskCreate) refers to heap_2.o(i.pvPortMalloc) for pvPortMalloc
    tasks.o(i.xTaskCreate) refers to heap_2.o(i.vPortFree) for vPortFree
    tasks.o(i.xTaskCreate) refers to tasks.o(i.prvInitialiseNewTask) for prvInitialiseNewTask
    tasks.o(i.xTaskCreate) refers to tasks.o(i.prvAddNewTaskToReadyList) for prvAddNewTaskToReadyList
    tasks.o(i.xTaskGenericNotify) refers to port.o(i.vPortEnterCritical) for vPortEnterCritical
    tasks.o(i.xTaskGenericNotify) refers to list.o(i.uxListRemove) for uxListRemove
    tasks.o(i.xTaskGenericNotify) refers to list.o(i.vListInsertEnd) for vListInsertEnd
    tasks.o(i.xTaskGenericNotify) refers to port.o(i.vPortExitCritical) for vPortExitCritical
    tasks.o(i.xTaskGenericNotify) refers to tasks.o(.data) for uxTopReadyPriority
    tasks.o(i.xTaskGenericNotify) refers to tasks.o(.bss) for pxReadyTasksLists
    tasks.o(i.xTaskGenericNotifyFromISR) refers to list.o(i.uxListRemove) for uxListRemove
    tasks.o(i.xTaskGenericNotifyFromISR) refers to list.o(i.vListInsertEnd) for vListInsertEnd
    tasks.o(i.xTaskGenericNotifyFromISR) refers to tasks.o(.data) for uxSchedulerSuspended
    tasks.o(i.xTaskGenericNotifyFromISR) refers to tasks.o(.bss) for pxReadyTasksLists
    tasks.o(i.xTaskGetTickCount) refers to tasks.o(.data) for xTickCount
    tasks.o(i.xTaskGetTickCountFromISR) refers to tasks.o(.data) for xTickCount
    tasks.o(i.xTaskIncrementTick) refers to tasks.o(i.prvResetNextTaskUnblockTime) for prvResetNextTaskUnblockTime
    tasks.o(i.xTaskIncrementTick) refers to list.o(i.uxListRemove) for uxListRemove
    tasks.o(i.xTaskIncrementTick) refers to list.o(i.vListInsertEnd) for vListInsertEnd
    tasks.o(i.xTaskIncrementTick) refers to tasks.o(.data) for uxSchedulerSuspended
    tasks.o(i.xTaskIncrementTick) refers to tasks.o(.bss) for pxReadyTasksLists
    tasks.o(i.xTaskNotifyStateClear) refers to port.o(i.vPortEnterCritical) for vPortEnterCritical
    tasks.o(i.xTaskNotifyStateClear) refers to port.o(i.vPortExitCritical) for vPortExitCritical
    tasks.o(i.xTaskNotifyStateClear) refers to tasks.o(.data) for pxCurrentTCB
    tasks.o(i.xTaskNotifyWait) refers to port.o(i.vPortEnterCritical) for vPortEnterCritical
    tasks.o(i.xTaskNotifyWait) refers to tasks.o(i.prvAddCurrentTaskToDelayedList) for prvAddCurrentTaskToDelayedList
    tasks.o(i.xTaskNotifyWait) refers to port.o(i.vPortExitCritical) for vPortExitCritical
    tasks.o(i.xTaskNotifyWait) refers to tasks.o(.data) for pxCurrentTCB
    tasks.o(i.xTaskRemoveFromEventList) refers to list.o(i.uxListRemove) for uxListRemove
    tasks.o(i.xTaskRemoveFromEventList) refers to list.o(i.vListInsertEnd) for vListInsertEnd
    tasks.o(i.xTaskRemoveFromEventList) refers to tasks.o(.data) for uxSchedulerSuspended
    tasks.o(i.xTaskRemoveFromEventList) refers to tasks.o(.bss) for pxReadyTasksLists
    tasks.o(i.xTaskRemoveFromUnorderedEventList) refers to list.o(i.uxListRemove) for uxListRemove
    tasks.o(i.xTaskRemoveFromUnorderedEventList) refers to list.o(i.vListInsertEnd) for vListInsertEnd
    tasks.o(i.xTaskRemoveFromUnorderedEventList) refers to tasks.o(.data) for uxTopReadyPriority
    tasks.o(i.xTaskRemoveFromUnorderedEventList) refers to tasks.o(.bss) for pxReadyTasksLists
    tasks.o(i.xTaskResumeAll) refers to port.o(i.vPortEnterCritical) for vPortEnterCritical
    tasks.o(i.xTaskResumeAll) refers to list.o(i.uxListRemove) for uxListRemove
    tasks.o(i.xTaskResumeAll) refers to list.o(i.vListInsertEnd) for vListInsertEnd
    tasks.o(i.xTaskResumeAll) refers to tasks.o(i.prvResetNextTaskUnblockTime) for prvResetNextTaskUnblockTime
    tasks.o(i.xTaskResumeAll) refers to tasks.o(i.xTaskIncrementTick) for xTaskIncrementTick
    tasks.o(i.xTaskResumeAll) refers to port.o(i.vPortExitCritical) for vPortExitCritical
    tasks.o(i.xTaskResumeAll) refers to tasks.o(.data) for uxSchedulerSuspended
    tasks.o(i.xTaskResumeAll) refers to tasks.o(.bss) for xPendingReadyList
    tasks.o(i.xTaskResumeFromISR) refers to tasks.o(i.prvTaskIsTaskSuspended) for prvTaskIsTaskSuspended
    tasks.o(i.xTaskResumeFromISR) refers to list.o(i.uxListRemove) for uxListRemove
    tasks.o(i.xTaskResumeFromISR) refers to list.o(i.vListInsertEnd) for vListInsertEnd
    tasks.o(i.xTaskResumeFromISR) refers to tasks.o(.data) for uxSchedulerSuspended
    tasks.o(i.xTaskResumeFromISR) refers to tasks.o(.bss) for pxReadyTasksLists
    stm32f10x_adc.o(i.ADC_DeInit) refers to stm32f10x_rcc.o(i.RCC_APB2PeriphResetCmd) for RCC_APB2PeriphResetCmd
    stm32f10x_gpio.o(i.GPIO_AFIODeInit) refers to stm32f10x_rcc.o(i.RCC_APB2PeriphResetCmd) for RCC_APB2PeriphResetCmd
    stm32f10x_gpio.o(i.GPIO_DeInit) refers to stm32f10x_rcc.o(i.RCC_APB2PeriphResetCmd) for RCC_APB2PeriphResetCmd
    stm32f10x_rcc.o(i.RCC_GetClocksFreq) refers to stm32f10x_rcc.o(.data) for APBAHBPrescTable
    stm32f10x_rcc.o(i.RCC_WaitForHSEStartUp) refers to stm32f10x_rcc.o(i.RCC_GetFlagStatus) for RCC_GetFlagStatus
    stm32f10x_tim.o(i.TIM_DeInit) refers to stm32f10x_rcc.o(i.RCC_APB2PeriphResetCmd) for RCC_APB2PeriphResetCmd
    stm32f10x_tim.o(i.TIM_DeInit) refers to stm32f10x_rcc.o(i.RCC_APB1PeriphResetCmd) for RCC_APB1PeriphResetCmd
    stm32f10x_tim.o(i.TIM_ETRClockMode1Config) refers to stm32f10x_tim.o(i.TIM_ETRConfig) for TIM_ETRConfig
    stm32f10x_tim.o(i.TIM_ETRClockMode2Config) refers to stm32f10x_tim.o(i.TIM_ETRConfig) for TIM_ETRConfig
    stm32f10x_tim.o(i.TIM_ICInit) refers to stm32f10x_tim.o(i.TI1_Config) for TI1_Config
    stm32f10x_tim.o(i.TIM_ICInit) refers to stm32f10x_tim.o(i.TIM_SetIC1Prescaler) for TIM_SetIC1Prescaler
    stm32f10x_tim.o(i.TIM_ICInit) refers to stm32f10x_tim.o(i.TI2_Config) for TI2_Config
    stm32f10x_tim.o(i.TIM_ICInit) refers to stm32f10x_tim.o(i.TIM_SetIC2Prescaler) for TIM_SetIC2Prescaler
    stm32f10x_tim.o(i.TIM_ICInit) refers to stm32f10x_tim.o(i.TI3_Config) for TI3_Config
    stm32f10x_tim.o(i.TIM_ICInit) refers to stm32f10x_tim.o(i.TIM_SetIC3Prescaler) for TIM_SetIC3Prescaler
    stm32f10x_tim.o(i.TIM_ICInit) refers to stm32f10x_tim.o(i.TI4_Config) for TI4_Config
    stm32f10x_tim.o(i.TIM_ICInit) refers to stm32f10x_tim.o(i.TIM_SetIC4Prescaler) for TIM_SetIC4Prescaler
    stm32f10x_tim.o(i.TIM_ITRxExternalClockConfig) refers to stm32f10x_tim.o(i.TIM_SelectInputTrigger) for TIM_SelectInputTrigger
    stm32f10x_tim.o(i.TIM_PWMIConfig) refers to stm32f10x_tim.o(i.TI1_Config) for TI1_Config
    stm32f10x_tim.o(i.TIM_PWMIConfig) refers to stm32f10x_tim.o(i.TIM_SetIC1Prescaler) for TIM_SetIC1Prescaler
    stm32f10x_tim.o(i.TIM_PWMIConfig) refers to stm32f10x_tim.o(i.TI2_Config) for TI2_Config
    stm32f10x_tim.o(i.TIM_PWMIConfig) refers to stm32f10x_tim.o(i.TIM_SetIC2Prescaler) for TIM_SetIC2Prescaler
    stm32f10x_tim.o(i.TIM_TIxExternalClockConfig) refers to stm32f10x_tim.o(i.TI2_Config) for TI2_Config
    stm32f10x_tim.o(i.TIM_TIxExternalClockConfig) refers to stm32f10x_tim.o(i.TI1_Config) for TI1_Config
    stm32f10x_tim.o(i.TIM_TIxExternalClockConfig) refers to stm32f10x_tim.o(i.TIM_SelectInputTrigger) for TIM_SelectInputTrigger
    stm32f10x_usart.o(i.USART_DeInit) refers to stm32f10x_rcc.o(i.RCC_APB2PeriphResetCmd) for RCC_APB2PeriphResetCmd
    stm32f10x_usart.o(i.USART_DeInit) refers to stm32f10x_rcc.o(i.RCC_APB1PeriphResetCmd) for RCC_APB1PeriphResetCmd
    stm32f10x_usart.o(i.USART_Init) refers to stm32f10x_rcc.o(i.RCC_GetClocksFreq) for RCC_GetClocksFreq
    startup_stm32f10x_hd.o(STACK) refers (Special) to heapauxi.o(.text) for __use_two_region_memory
    startup_stm32f10x_hd.o(HEAP) refers (Special) to heapauxi.o(.text) for __use_two_region_memory
    startup_stm32f10x_hd.o(RESET) refers (Special) to heapauxi.o(.text) for __use_two_region_memory
    startup_stm32f10x_hd.o(RESET) refers to startup_stm32f10x_hd.o(STACK) for __initial_sp
    startup_stm32f10x_hd.o(RESET) refers to startup_stm32f10x_hd.o(.text) for Reset_Handler
    startup_stm32f10x_hd.o(RESET) refers to port.o(.emb_text) for vPortSVCHandler
    startup_stm32f10x_hd.o(RESET) refers to port.o(i.xPortSysTickHandler) for xPortSysTickHandler
    startup_stm32f10x_hd.o(RESET) refers to infrared.o(i.EXTI0_IRQHandler) for EXTI0_IRQHandler
    startup_stm32f10x_hd.o(RESET) refers to gpio_in.o(i.EXTI2_IRQHandler) for EXTI2_IRQHandler
    startup_stm32f10x_hd.o(RESET) refers to gpio_in.o(i.EXTI3_IRQHandler) for EXTI3_IRQHandler
    startup_stm32f10x_hd.o(RESET) refers to encoder.o(i.EXTI9_5_IRQHandler) for EXTI9_5_IRQHandler
    startup_stm32f10x_hd.o(RESET) refers to usart_debug.o(i.USART1_IRQHandler) for USART1_IRQHandler
    startup_stm32f10x_hd.o(RESET) refers to rs232.o(i.USART3_IRQHandler) for USART3_IRQHandler
    startup_stm32f10x_hd.o(RESET) refers to rs485.o(i.UART4_IRQHandler) for UART4_IRQHandler
    startup_stm32f10x_hd.o(.text) refers (Special) to heapauxi.o(.text) for __use_two_region_memory
    startup_stm32f10x_hd.o(.text) refers to system_stm32f10x.o(i.SystemInit) for SystemInit
    startup_stm32f10x_hd.o(.text) refers to __main.o(!!!main) for __main
    startup_stm32f10x_hd.o(.text) refers to startup_stm32f10x_hd.o(HEAP) for Heap_Mem
    startup_stm32f10x_hd.o(.text) refers to startup_stm32f10x_hd.o(STACK) for Stack_Mem
    system_stm32f10x.o(i.SetSysClock) refers to system_stm32f10x.o(i.SetSysClockTo72) for SetSysClockTo72
    system_stm32f10x.o(i.SystemCoreClockUpdate) refers to system_stm32f10x.o(.data) for SystemCoreClock
    system_stm32f10x.o(i.SystemInit) refers to system_stm32f10x.o(i.SetSysClock) for SetSysClock
    use_no_semi_2.o(.text) refers (Special) to use_no_semi.o(.text) for __use_no_semihosting_swi
    __2printf.o(.text) refers to _printf_char_file.o(.text) for _printf_char_file
    __2printf.o(.text) refers to usart.o(.data) for __stdout
    __2sprintf.o(.text) refers to _printf_char_common.o(.text) for _printf_char_common
    __2sprintf.o(.text) refers to _sputc.o(.text) for _sputc
    noretval__2printf.o(.text) refers to _printf_char_file.o(.text) for _printf_char_file
    noretval__2printf.o(.text) refers to usart.o(.data) for __stdout
    noretval__2sprintf.o(.text) refers to _printf_char_common.o(.text) for _printf_char_common
    noretval__2sprintf.o(.text) refers to _sputc.o(.text) for _sputc
    __printf.o(.text) refers to _printf_percent.o(.ARM.Collect$$_printf_percent$$00000000) for _printf_percent
    _printf_str.o(.text) refers (Special) to _printf_char.o(.text) for _printf_cs_common
    _printf_str.o(.text) refers (Weak) to _printf_pad.o(.text) for _printf_pre_padding
    _printf_str.o(.text) refers (Weak) to _printf_pad.o(.text) for _printf_post_padding
    _printf_dec.o(.text) refers to _printf_intcommon.o(.text) for _printf_int_common
    _printf_hex_ll.o(.text) refers to _printf_intcommon.o(.text) for _printf_int_common
    _printf_hex_ll.o(.text) refers to _printf_hex_ll.o(.constdata) for .constdata
    _printf_hex_int.o(.text) refers to _printf_intcommon.o(.text) for _printf_int_common
    _printf_hex_int.o(.text) refers to _printf_hex_int.o(.constdata) for .constdata
    _printf_hex_int_ll.o(.text) refers to _printf_intcommon.o(.text) for _printf_int_common
    _printf_hex_int_ll.o(.text) refers to _printf_hex_int_ll.o(.constdata) for .constdata
    _printf_hex_ptr.o(.text) refers to _printf_intcommon.o(.text) for _printf_int_common
    _printf_hex_ptr.o(.text) refers to _printf_hex_ptr.o(.constdata) for .constdata
    _printf_hex_int_ptr.o(.text) refers to _printf_intcommon.o(.text) for _printf_int_common
    _printf_hex_int_ptr.o(.text) refers to _printf_hex_int_ptr.o(.constdata) for .constdata
    _printf_hex_ll_ptr.o(.text) refers to _printf_intcommon.o(.text) for _printf_int_common
    _printf_hex_ll_ptr.o(.text) refers to _printf_hex_ll_ptr.o(.constdata) for .constdata
    _printf_hex_int_ll_ptr.o(.text) refers to _printf_intcommon.o(.text) for _printf_int_common
    _printf_hex_int_ll_ptr.o(.text) refers to _printf_hex_int_ll_ptr.o(.constdata) for .constdata
    __printf_flags.o(.text) refers to _printf_percent.o(.ARM.Collect$$_printf_percent$$00000000) for _printf_percent
    __printf_flags.o(.text) refers to __printf_flags.o(.constdata) for .constdata
    __printf_ss.o(.text) refers to _printf_percent.o(.ARM.Collect$$_printf_percent$$00000000) for _printf_percent
    __printf_flags_ss.o(.text) refers to _printf_percent.o(.ARM.Collect$$_printf_percent$$00000000) for _printf_percent
    __printf_flags_ss.o(.text) refers to __printf_flags_ss.o(.constdata) for .constdata
    __printf_wp.o(.text) refers to __printf_wp.o(i._is_digit) for _is_digit
    __printf_wp.o(.text) refers to _printf_percent.o(.ARM.Collect$$_printf_percent$$00000000) for _printf_percent
    __printf_flags_wp.o(.text) refers to __printf_wp.o(i._is_digit) for _is_digit
    __printf_flags_wp.o(.text) refers to _printf_percent.o(.ARM.Collect$$_printf_percent$$00000000) for _printf_percent
    __printf_flags_wp.o(.text) refers to __printf_flags_wp.o(.constdata) for .constdata
    __printf_ss_wp.o(.text) refers to __printf_wp.o(i._is_digit) for _is_digit
    __printf_ss_wp.o(.text) refers to _printf_percent.o(.ARM.Collect$$_printf_percent$$00000000) for _printf_percent
    __printf_flags_ss_wp.o(.text) refers to __printf_wp.o(i._is_digit) for _is_digit
    __printf_flags_ss_wp.o(.text) refers to _printf_percent.o(.ARM.Collect$$_printf_percent$$00000000) for _printf_percent
    __printf_flags_ss_wp.o(.text) refers to __printf_flags_ss_wp.o(.constdata) for .constdata
    _printf_c.o(.ARM.Collect$$_printf_percent$$00000013) refers (Weak) to _printf_char.o(.text) for _printf_char
    _printf_s.o(.ARM.Collect$$_printf_percent$$00000014) refers (Weak) to _printf_char.o(.text) for _printf_string
    _printf_x.o(.ARM.Collect$$_printf_percent$$0000000C) refers (Weak) to _printf_hex_int.o(.text) for _printf_int_hex
    _printf_d.o(.ARM.Collect$$_printf_percent$$00000009) refers (Weak) to _printf_dec.o(.text) for _printf_int_dec
    _printf_u.o(.ARM.Collect$$_printf_percent$$0000000A) refers (Weak) to _printf_dec.o(.text) for _printf_int_dec
    _printf_f.o(.ARM.Collect$$_printf_percent$$00000003) refers (Weak) to printf1.o(x$fpl$printf1) for _printf_fp_dec
    _printf_percent.o(.ARM.Collect$$_printf_percent$$00000000) refers (Special) to _printf_percent_end.o(.ARM.Collect$$_printf_percent$$00000017) for _printf_percent_end
    rt_memcpy_v6.o(.text) refers to rt_memcpy_w.o(.text) for __aeabi_memcpy4
    __main.o(!!!main) refers to __rtentry.o(.ARM.Collect$$rtentry$$00000000) for __rt_entry
    daddsub_clz.o(x$fpl$dadd) refers (Special) to usenofp.o(x$fpl$usenofp) for __I$use$fp
    daddsub_clz.o(x$fpl$dadd) refers to daddsub_clz.o(x$fpl$dsub) for _dsub1
    daddsub_clz.o(x$fpl$dadd) refers to dretinf.o(x$fpl$dretinf) for __fpl_dretinf
    daddsub_clz.o(x$fpl$dadd) refers to dnaninf.o(x$fpl$dnaninf) for __fpl_dnaninf
    daddsub_clz.o(x$fpl$drsb) refers (Special) to usenofp.o(x$fpl$usenofp) for __I$use$fp
    daddsub_clz.o(x$fpl$drsb) refers to daddsub_clz.o(x$fpl$dadd) for _dadd1
    daddsub_clz.o(x$fpl$drsb) refers to daddsub_clz.o(x$fpl$dsub) for _dsub1
    daddsub_clz.o(x$fpl$dsub) refers (Special) to usenofp.o(x$fpl$usenofp) for __I$use$fp
    daddsub_clz.o(x$fpl$dsub) refers to daddsub_clz.o(x$fpl$dadd) for _dadd1
    daddsub_clz.o(x$fpl$dsub) refers to dnaninf.o(x$fpl$dnaninf) for __fpl_dnaninf
    ddiv.o(x$fpl$drdiv) refers (Special) to usenofp.o(x$fpl$usenofp) for __I$use$fp
    ddiv.o(x$fpl$drdiv) refers to ddiv.o(x$fpl$ddiv) for ddiv_entry
    ddiv.o(x$fpl$ddiv) refers (Special) to usenofp.o(x$fpl$usenofp) for __I$use$fp
    ddiv.o(x$fpl$ddiv) refers to dretinf.o(x$fpl$dretinf) for __fpl_dretinf
    ddiv.o(x$fpl$ddiv) refers to dnaninf.o(x$fpl$dnaninf) for __fpl_dnaninf
    dfix.o(x$fpl$dfix) refers (Special) to usenofp.o(x$fpl$usenofp) for __I$use$fp
    dfix.o(x$fpl$dfix) refers to dnaninf.o(x$fpl$dnaninf) for __fpl_dnaninf
    dfix.o(x$fpl$dfixr) refers (Special) to usenofp.o(x$fpl$usenofp) for __I$use$fp
    dfix.o(x$fpl$dfixr) refers to dnaninf.o(x$fpl$dnaninf) for __fpl_dnaninf
    dmul.o(x$fpl$dmul) refers (Special) to usenofp.o(x$fpl$usenofp) for __I$use$fp
    dmul.o(x$fpl$dmul) refers to dretinf.o(x$fpl$dretinf) for __fpl_dretinf
    dmul.o(x$fpl$dmul) refers to dnaninf.o(x$fpl$dnaninf) for __fpl_dnaninf
    f2d.o(x$fpl$f2d) refers (Special) to usenofp.o(x$fpl$usenofp) for __I$use$fp
    f2d.o(x$fpl$f2d) refers to fnaninf.o(x$fpl$fnaninf) for __fpl_fnaninf
    f2d.o(x$fpl$f2d) refers to dretinf.o(x$fpl$dretinf) for __fpl_dretinf
    fdiv.o(x$fpl$frdiv) refers (Special) to usenofp.o(x$fpl$usenofp) for __I$use$fp
    fdiv.o(x$fpl$frdiv) refers to fdiv.o(x$fpl$fdiv) for _fdiv1
    fdiv.o(x$fpl$fdiv) refers (Special) to usenofp.o(x$fpl$usenofp) for __I$use$fp
    fdiv.o(x$fpl$fdiv) refers to fretinf.o(x$fpl$fretinf) for __fpl_fretinf
    fdiv.o(x$fpl$fdiv) refers to fnaninf.o(x$fpl$fnaninf) for __fpl_fnaninf
    ffix.o(x$fpl$ffix) refers (Special) to usenofp.o(x$fpl$usenofp) for __I$use$fp
    ffix.o(x$fpl$ffix) refers to fnaninf.o(x$fpl$fnaninf) for __fpl_fnaninf
    ffix.o(x$fpl$ffixr) refers (Special) to usenofp.o(x$fpl$usenofp) for __I$use$fp
    ffix.o(x$fpl$ffixr) refers to fnaninf.o(x$fpl$fnaninf) for __fpl_fnaninf
    fflt_clz.o(x$fpl$ffltu) refers (Special) to usenofp.o(x$fpl$usenofp) for __I$use$fp
    fflt_clz.o(x$fpl$fflt) refers (Special) to usenofp.o(x$fpl$usenofp) for __I$use$fp
    fflt_clz.o(x$fpl$ffltn) refers (Special) to usenofp.o(x$fpl$usenofp) for __I$use$fp
    fmul.o(x$fpl$fmul) refers (Special) to usenofp.o(x$fpl$usenofp) for __I$use$fp
    fmul.o(x$fpl$fmul) refers to fretinf.o(x$fpl$fretinf) for __fpl_fretinf
    fmul.o(x$fpl$fmul) refers to fnaninf.o(x$fpl$fnaninf) for __fpl_fnaninf
    printf1.o(x$fpl$printf1) refers to _printf_fp_dec.o(.text) for _printf_fp_dec_real
    __rtentry.o(.ARM.Collect$$rtentry$$00000000) refers (Special) to __rtentry2.o(.ARM.Collect$$rtentry$$0000000A) for __rt_entry_li
    __rtentry.o(.ARM.Collect$$rtentry$$00000000) refers (Special) to __rtentry2.o(.ARM.Collect$$rtentry$$0000000D) for __rt_entry_main
    __rtentry.o(.ARM.Collect$$rtentry$$00000000) refers (Special) to __rtentry2.o(.ARM.Collect$$rtentry$$0000000C) for __rt_entry_postli_1
    __rtentry.o(.ARM.Collect$$rtentry$$00000000) refers (Special) to __rtentry2.o(.ARM.Collect$$rtentry$$00000009) for __rt_entry_postsh_1
    __rtentry.o(.ARM.Collect$$rtentry$$00000000) refers (Special) to __rtentry2.o(.ARM.Collect$$rtentry$$00000002) for __rt_entry_presh_1
    __rtentry.o(.ARM.Collect$$rtentry$$00000000) refers (Special) to __rtentry4.o(.ARM.Collect$$rtentry$$00000004) for __rt_entry_sh
    _printf_intcommon.o(.text) refers (Weak) to _printf_pad.o(.text) for _printf_pre_padding
    _printf_intcommon.o(.text) refers (Weak) to _printf_pad.o(.text) for _printf_pre_padding
    _printf_intcommon.o(.text) refers (Weak) to _printf_pad.o(.text) for _printf_post_padding
    _printf_fp_dec.o(.text) refers (Special) to usenofp.o(x$fpl$usenofp) for __I$use$fp
    _printf_fp_dec.o(.text) refers (Special) to lc_numeric_c.o(locale$$code) for _get_lc_numeric
    _printf_fp_dec.o(.text) refers to bigflt0.o(.text) for _btod_etento
    _printf_fp_dec.o(.text) refers to btod.o(CL$$btod_d2e) for _btod_d2e
    _printf_fp_dec.o(.text) refers to btod.o(CL$$btod_ediv) for _btod_ediv
    _printf_fp_dec.o(.text) refers to btod.o(CL$$btod_emul) for _btod_emul
    _printf_fp_dec.o(.text) refers to lludiv10.o(.text) for _ll_udiv10
    _printf_fp_dec.o(.text) refers to fpclassify.o(i.__ARM_fpclassify) for __ARM_fpclassify
    _printf_fp_dec.o(.text) refers to _printf_fp_infnan.o(.text) for _printf_fp_infnan
    _printf_fp_dec.o(.text) refers (Weak) to _printf_pad.o(.text) for _printf_pre_padding
    _printf_fp_dec.o(.text) refers (Weak) to _printf_pad.o(.text) for _printf_pre_padding
    _printf_fp_dec.o(.text) refers to rt_locale_intlibspace.o(.text) for __rt_locale
    _printf_fp_dec.o(.text) refers (Weak) to _printf_pad.o(.text) for _printf_post_padding
    _printf_char_common.o(.text) refers to __printf_flags_ss_wp.o(.text) for __printf
    _printf_char.o(.text) refers (Weak) to _printf_str.o(.text) for _printf_str
    _printf_char_file.o(.text) refers to _printf_char_common.o(.text) for _printf_char_common
    _printf_char_file.o(.text) refers to ferror.o(.text) for ferror
    _printf_char_file.o(.text) refers to usart.o(i.fputc) for fputc
    dnaninf.o(x$fpl$dnaninf) refers (Special) to usenofp.o(x$fpl$usenofp) for __I$use$fp
    dretinf.o(x$fpl$dretinf) refers (Special) to usenofp.o(x$fpl$usenofp) for __I$use$fp
    fnaninf.o(x$fpl$fnaninf) refers (Special) to usenofp.o(x$fpl$usenofp) for __I$use$fp
    fretinf.o(x$fpl$fretinf) refers (Special) to usenofp.o(x$fpl$usenofp) for __I$use$fp
    __rtentry2.o(.ARM.Collect$$rtentry$$00000008) refers to boardinit2.o(.text) for _platform_post_stackheap_init
    __rtentry2.o(.ARM.Collect$$rtentry$$0000000A) refers to libinit.o(.ARM.Collect$$libinit$$00000000) for __rt_lib_init
    __rtentry2.o(.ARM.Collect$$rtentry$$0000000B) refers to boardinit3.o(.text) for _platform_post_lib_init
    __rtentry2.o(.ARM.Collect$$rtentry$$0000000D) refers to main.o(i.main) for main
    __rtentry2.o(.ARM.Collect$$rtentry$$0000000D) refers to exit.o(.text) for exit
    __rtentry2.o(.ARM.exidx) refers to __rtentry2.o(.ARM.Collect$$rtentry$$00000001) for .ARM.Collect$$rtentry$$00000001
    __rtentry2.o(.ARM.exidx) refers to __rtentry2.o(.ARM.Collect$$rtentry$$00000008) for .ARM.Collect$$rtentry$$00000008
    __rtentry2.o(.ARM.exidx) refers to __rtentry2.o(.ARM.Collect$$rtentry$$0000000A) for .ARM.Collect$$rtentry$$0000000A
    __rtentry2.o(.ARM.exidx) refers to __rtentry2.o(.ARM.Collect$$rtentry$$0000000B) for .ARM.Collect$$rtentry$$0000000B
    __rtentry2.o(.ARM.exidx) refers to __rtentry2.o(.ARM.Collect$$rtentry$$0000000D) for .ARM.Collect$$rtentry$$0000000D
    __rtentry4.o(.ARM.Collect$$rtentry$$00000004) refers to sys_stackheap_outer.o(.text) for __user_setup_stackheap
    __rtentry4.o(.ARM.exidx) refers to __rtentry4.o(.ARM.Collect$$rtentry$$00000004) for .ARM.Collect$$rtentry$$00000004
    rt_locale.o(.text) refers to rt_locale.o(.bss) for __rt_locale_data
    rt_locale_intlibspace.o(.text) refers to libspace.o(.bss) for __libspace_start
    _printf_fp_infnan.o(.text) refers (Weak) to _printf_pad.o(.text) for _printf_pre_padding
    _printf_fp_infnan.o(.text) refers (Weak) to _printf_pad.o(.text) for _printf_post_padding
    bigflt0.o(.text) refers (Special) to usenofp.o(x$fpl$usenofp) for __I$use$fp
    bigflt0.o(.text) refers to btod.o(CL$$btod_emul) for _btod_emul
    bigflt0.o(.text) refers to btod.o(CL$$btod_ediv) for _btod_ediv
    bigflt0.o(.text) refers to bigflt0.o(.constdata) for .constdata
    bigflt0.o(.constdata) refers (Special) to usenofp.o(x$fpl$usenofp) for __I$use$fp
    btod.o(CL$$btod_d2e) refers (Special) to usenofp.o(x$fpl$usenofp) for __I$use$fp
    btod.o(CL$$btod_d2e) refers to btod.o(CL$$btod_d2e_norm_op1) for _d2e_norm_op1
    btod.o(CL$$btod_d2e_norm_op1) refers (Special) to usenofp.o(x$fpl$usenofp) for __I$use$fp
    btod.o(CL$$btod_d2e_norm_op1) refers to btod.o(CL$$btod_d2e_denorm_low) for _d2e_denorm_low
    btod.o(CL$$btod_d2e_denorm_low) refers (Special) to usenofp.o(x$fpl$usenofp) for __I$use$fp
    btod.o(CL$$btod_emul) refers (Special) to usenofp.o(x$fpl$usenofp) for __I$use$fp
    btod.o(CL$$btod_emul) refers to btod.o(CL$$btod_mult_common) for __btod_mult_common
    btod.o(CL$$btod_emul) refers to btod.o(CL$$btod_e2e) for _e2e
    btod.o(CL$$btod_ediv) refers (Special) to usenofp.o(x$fpl$usenofp) for __I$use$fp
    btod.o(CL$$btod_ediv) refers to btod.o(CL$$btod_div_common) for __btod_div_common
    btod.o(CL$$btod_ediv) refers to btod.o(CL$$btod_e2e) for _e2e
    btod.o(CL$$btod_emuld) refers (Special) to usenofp.o(x$fpl$usenofp) for __I$use$fp
    btod.o(CL$$btod_emuld) refers to btod.o(CL$$btod_mult_common) for __btod_mult_common
    btod.o(CL$$btod_emuld) refers to btod.o(CL$$btod_e2d) for _e2d
    btod.o(CL$$btod_edivd) refers (Special) to usenofp.o(x$fpl$usenofp) for __I$use$fp
    btod.o(CL$$btod_edivd) refers to btod.o(CL$$btod_div_common) for __btod_div_common
    btod.o(CL$$btod_edivd) refers to btod.o(CL$$btod_e2d) for _e2d
    btod.o(CL$$btod_e2e) refers (Special) to usenofp.o(x$fpl$usenofp) for __I$use$fp
    btod.o(CL$$btod_e2d) refers (Special) to usenofp.o(x$fpl$usenofp) for __I$use$fp
    btod.o(CL$$btod_e2d) refers to btod.o(CL$$btod_e2e) for _e2e
    btod.o(CL$$btod_mult_common) refers (Special) to usenofp.o(x$fpl$usenofp) for __I$use$fp
    btod.o(CL$$btod_div_common) refers (Special) to usenofp.o(x$fpl$usenofp) for __I$use$fp
    lc_numeric_c.o(locale$$data) refers (Special) to libinit2.o(.ARM.Collect$$libinit$$00000016) for __rt_lib_init_lc_numeric_2
    lc_numeric_c.o(locale$$code) refers (Special) to libinit2.o(.ARM.Collect$$libinit$$00000016) for __rt_lib_init_lc_numeric_2
    lc_numeric_c.o(locale$$code) refers to strcmpv7m.o(.text) for strcmp
    lc_numeric_c.o(locale$$code) refers to lc_numeric_c.o(locale$$data) for __lcnum_c_name
    istatus.o(x$fpl$ieeestatus) refers (Special) to usenofp.o(x$fpl$usenofp) for __I$use$fp
    fpclassify.o(i.__ARM_fpclassify) refers (Special) to usenofp.o(x$fpl$usenofp) for __I$use$fp
    libspace.o(.text) refers to libspace.o(.bss) for __libspace_start
    sys_stackheap_outer.o(.text) refers to libspace.o(.text) for __user_perproc_libspace
    sys_stackheap_outer.o(.text) refers to startup_stm32f10x_hd.o(.text) for __user_initial_stackheap
    exit.o(.text) refers to rtexit.o(.ARM.Collect$$rtexit$$00000000) for __rt_exit
    libinit.o(.ARM.Collect$$libinit$$00000000) refers (Special) to libinit2.o(.ARM.Collect$$libinit$$0000002E) for __rt_lib_init_alloca_1
    libinit.o(.ARM.Collect$$libinit$$00000000) refers (Special) to libinit2.o(.ARM.Collect$$libinit$$0000002C) for __rt_lib_init_argv_1
    libinit.o(.ARM.Collect$$libinit$$00000000) refers (Special) to libinit2.o(.ARM.Collect$$libinit$$0000001B) for __rt_lib_init_atexit_1
    libinit.o(.ARM.Collect$$libinit$$00000000) refers (Special) to libinit2.o(.ARM.Collect$$libinit$$00000021) for __rt_lib_init_clock_1
    libinit.o(.ARM.Collect$$libinit$$00000000) refers (Special) to libinit2.o(.ARM.Collect$$libinit$$00000032) for __rt_lib_init_cpp_1
    libinit.o(.ARM.Collect$$libinit$$00000000) refers (Special) to libinit2.o(.ARM.Collect$$libinit$$00000030) for __rt_lib_init_exceptions_1
    libinit.o(.ARM.Collect$$libinit$$00000000) refers (Special) to libinit2.o(.ARM.Collect$$libinit$$00000002) for __rt_lib_init_fp_1
    libinit.o(.ARM.Collect$$libinit$$00000000) refers (Special) to libinit2.o(.ARM.Collect$$libinit$$0000001F) for __rt_lib_init_fp_trap_1
    libinit.o(.ARM.Collect$$libinit$$00000000) refers (Special) to libinit2.o(.ARM.Collect$$libinit$$00000023) for __rt_lib_init_getenv_1
    libinit.o(.ARM.Collect$$libinit$$00000000) refers (Special) to libinit2.o(.ARM.Collect$$libinit$$0000000A) for __rt_lib_init_heap_1
    libinit.o(.ARM.Collect$$libinit$$00000000) refers (Special) to libinit2.o(.ARM.Collect$$libinit$$00000011) for __rt_lib_init_lc_collate_1
    libinit.o(.ARM.Collect$$libinit$$00000000) refers (Special) to libinit2.o(.ARM.Collect$$libinit$$00000013) for __rt_lib_init_lc_ctype_1
    libinit.o(.ARM.Collect$$libinit$$00000000) refers (Special) to libinit2.o(.ARM.Collect$$libinit$$00000015) for __rt_lib_init_lc_monetary_1
    libinit.o(.ARM.Collect$$libinit$$00000000) refers (Special) to libinit2.o(.ARM.Collect$$libinit$$00000017) for __rt_lib_init_lc_numeric_1
    libinit.o(.ARM.Collect$$libinit$$00000000) refers (Special) to libinit2.o(.ARM.Collect$$libinit$$00000019) for __rt_lib_init_lc_time_1
    libinit.o(.ARM.Collect$$libinit$$00000000) refers (Special) to libinit2.o(.ARM.Collect$$libinit$$00000004) for __rt_lib_init_preinit_1
    libinit.o(.ARM.Collect$$libinit$$00000000) refers (Special) to libinit2.o(.ARM.Collect$$libinit$$0000000E) for __rt_lib_init_rand_1
    libinit.o(.ARM.Collect$$libinit$$00000000) refers (Special) to libinit2.o(.ARM.Collect$$libinit$$00000033) for __rt_lib_init_return
    libinit.o(.ARM.Collect$$libinit$$00000000) refers (Special) to libinit2.o(.ARM.Collect$$libinit$$0000001D) for __rt_lib_init_signal_1
    libinit.o(.ARM.Collect$$libinit$$00000000) refers (Special) to libinit2.o(.ARM.Collect$$libinit$$00000025) for __rt_lib_init_stdio_1
    libinit.o(.ARM.Collect$$libinit$$00000000) refers (Special) to libinit2.o(.ARM.Collect$$libinit$$0000000C) for __rt_lib_init_user_alloc_1
    libinit2.o(.ARM.Collect$$libinit$$0000000F) refers (Weak) to rt_locale_intlibspace.o(.text) for __rt_locale
    libinit2.o(.ARM.Collect$$libinit$$00000010) refers to libinit2.o(.ARM.Collect$$libinit$$0000000F) for .ARM.Collect$$libinit$$0000000F
    libinit2.o(.ARM.Collect$$libinit$$00000012) refers to libinit2.o(.ARM.Collect$$libinit$$0000000F) for .ARM.Collect$$libinit$$0000000F
    libinit2.o(.ARM.Collect$$libinit$$00000014) refers to libinit2.o(.ARM.Collect$$libinit$$0000000F) for .ARM.Collect$$libinit$$0000000F
    libinit2.o(.ARM.Collect$$libinit$$00000016) refers to libinit2.o(.ARM.Collect$$libinit$$0000000F) for .ARM.Collect$$libinit$$0000000F
    libinit2.o(.ARM.Collect$$libinit$$00000016) refers (Weak) to lc_numeric_c.o(locale$$code) for _get_lc_numeric
    libinit2.o(.ARM.Collect$$libinit$$00000018) refers to libinit2.o(.ARM.Collect$$libinit$$0000000F) for .ARM.Collect$$libinit$$0000000F
    libinit2.o(.ARM.Collect$$libinit$$00000026) refers to argv_veneer.o(.emb_text) for __ARM_argv_veneer
    libinit2.o(.ARM.Collect$$libinit$$00000027) refers to argv_veneer.o(.emb_text) for __ARM_argv_veneer
    rtexit.o(.ARM.Collect$$rtexit$$00000000) refers (Special) to rtexit2.o(.ARM.Collect$$rtexit$$00000004) for __rt_exit_exit
    rtexit.o(.ARM.Collect$$rtexit$$00000000) refers (Special) to rtexit2.o(.ARM.Collect$$rtexit$$00000003) for __rt_exit_ls
    rtexit.o(.ARM.Collect$$rtexit$$00000000) refers (Special) to rtexit2.o(.ARM.Collect$$rtexit$$00000002) for __rt_exit_prels_1
    rtexit.o(.ARM.exidx) refers (Special) to rtexit2.o(.ARM.Collect$$rtexit$$00000004) for __rt_exit_exit
    rtexit.o(.ARM.exidx) refers (Special) to rtexit2.o(.ARM.Collect$$rtexit$$00000003) for __rt_exit_ls
    rtexit.o(.ARM.exidx) refers (Special) to rtexit2.o(.ARM.Collect$$rtexit$$00000002) for __rt_exit_prels_1
    rtexit.o(.ARM.exidx) refers to rtexit.o(.ARM.Collect$$rtexit$$00000000) for .ARM.Collect$$rtexit$$00000000
    argv_veneer.o(.emb_text) refers to no_argv.o(.text) for __ARM_get_argv
    rtexit2.o(.ARM.Collect$$rtexit$$00000003) refers to libshutdown.o(.ARM.Collect$$libshutdown$$00000000) for __rt_lib_shutdown
    rtexit2.o(.ARM.Collect$$rtexit$$00000004) refers to usart.o(i._sys_exit) for _sys_exit
    rtexit2.o(.ARM.exidx) refers to rtexit2.o(.ARM.Collect$$rtexit$$00000001) for .ARM.Collect$$rtexit$$00000001
    rtexit2.o(.ARM.exidx) refers to rtexit2.o(.ARM.Collect$$rtexit$$00000003) for .ARM.Collect$$rtexit$$00000003
    rtexit2.o(.ARM.exidx) refers to rtexit2.o(.ARM.Collect$$rtexit$$00000004) for .ARM.Collect$$rtexit$$00000004
    _get_argv_nomalloc.o(.text) refers (Special) to hrguard.o(.text) for __heap_region$guard
    _get_argv_nomalloc.o(.text) refers to defsig_rtmem_outer.o(.text) for __rt_SIGRTMEM
    _get_argv_nomalloc.o(.text) refers to sys_command.o(.text) for _sys_command_string
    sys_command.o(.text) refers (Special) to use_no_semi.o(.text) for __I$use$semihosting
    sys_command.o(.text) refers (Special) to indicate_semi.o(.text) for __semihosting_library_function
    defsig_rtmem_outer.o(.text) refers to defsig_rtmem_inner.o(.text) for __rt_SIGRTMEM_inner
    defsig_rtmem_outer.o(.text) refers to defsig_exit.o(.text) for __sig_exit
    defsig_rtmem_formal.o(.text) refers to rt_raise.o(.text) for __rt_raise
    libshutdown.o(.ARM.Collect$$libshutdown$$00000000) refers (Special) to libshutdown2.o(.ARM.Collect$$libshutdown$$00000002) for __rt_lib_shutdown_cpp_1
    libshutdown.o(.ARM.Collect$$libshutdown$$00000000) refers (Special) to libshutdown2.o(.ARM.Collect$$libshutdown$$00000007) for __rt_lib_shutdown_fp_trap_1
    libshutdown.o(.ARM.Collect$$libshutdown$$00000000) refers (Special) to libshutdown2.o(.ARM.Collect$$libshutdown$$0000000F) for __rt_lib_shutdown_heap_1
    libshutdown.o(.ARM.Collect$$libshutdown$$00000000) refers (Special) to libshutdown2.o(.ARM.Collect$$libshutdown$$00000010) for __rt_lib_shutdown_return
    libshutdown.o(.ARM.Collect$$libshutdown$$00000000) refers (Special) to libshutdown2.o(.ARM.Collect$$libshutdown$$0000000A) for __rt_lib_shutdown_signal_1
    libshutdown.o(.ARM.Collect$$libshutdown$$00000000) refers (Special) to libshutdown2.o(.ARM.Collect$$libshutdown$$00000004) for __rt_lib_shutdown_stdio_1
    libshutdown.o(.ARM.Collect$$libshutdown$$00000000) refers (Special) to libshutdown2.o(.ARM.Collect$$libshutdown$$0000000C) for __rt_lib_shutdown_user_alloc_1
    rt_raise.o(.text) refers to __raise.o(.text) for __raise
    rt_raise.o(.text) refers to usart.o(i._sys_exit) for _sys_exit
    defsig_exit.o(.text) refers to usart.o(i._sys_exit) for _sys_exit
    defsig_rtmem_inner.o(.text) refers to defsig_general.o(.text) for __default_signal_display
    __raise.o(.text) refers to defsig.o(CL$$defsig) for __default_signal_handler
    defsig_general.o(.text) refers to sys_wrch.o(.text) for _ttywrch
    sys_wrch.o(.text) refers (Special) to use_no_semi.o(.text) for __I$use$semihosting
    sys_wrch.o(.text) refers (Special) to indicate_semi.o(.text) for __semihosting_library_function
    defsig.o(CL$$defsig) refers to defsig_rtmem_inner.o(.text) for __rt_SIGRTMEM_inner
    defsig_abrt_inner.o(.text) refers to defsig_general.o(.text) for __default_signal_display
    defsig_fpe_inner.o(.text) refers to defsig_general.o(.text) for __default_signal_display
    defsig_rtred_inner.o(.text) refers to defsig_general.o(.text) for __default_signal_display
    defsig_stak_inner.o(.text) refers to defsig_general.o(.text) for __default_signal_display
    defsig_pvfn_inner.o(.text) refers to defsig_general.o(.text) for __default_signal_display
    defsig_cppl_inner.o(.text) refers to defsig_general.o(.text) for __default_signal_display
    defsig_segv_inner.o(.text) refers to defsig_general.o(.text) for __default_signal_display
    defsig_other.o(.text) refers to defsig_general.o(.text) for __default_signal_display


==============================================================================

Removing Unused input sections from the image.

    Removing main.o(.rev16_text), (4 bytes).
    Removing main.o(.revsh_text), (4 bytes).
    Removing main.o(.rrx_text), (6 bytes).
    Removing freertos_tasks.o(.rev16_text), (4 bytes).
    Removing freertos_tasks.o(.revsh_text), (4 bytes).
    Removing freertos_tasks.o(.rrx_text), (6 bytes).
    Removing sys.o(.rev16_text), (4 bytes).
    Removing sys.o(.revsh_text), (4 bytes).
    Removing sys.o(.rrx_text), (6 bytes).
    Removing sys.o(.emb_text), (6 bytes).
    Removing sys.o(i.INTX_DISABLE), (4 bytes).
    Removing sys.o(i.INTX_ENABLE), (4 bytes).
    Removing sys.o(i.JTAG_Set), (48 bytes).
    Removing sys.o(i.WFI_SET), (4 bytes).
    Removing delay.o(.rev16_text), (4 bytes).
    Removing delay.o(.revsh_text), (4 bytes).
    Removing delay.o(.rrx_text), (6 bytes).
    Removing key.o(.rev16_text), (4 bytes).
    Removing key.o(.revsh_text), (4 bytes).
    Removing key.o(.rrx_text), (6 bytes).
    Removing key.o(i.KEY_init), (36 bytes).
    Removing key.o(i.key_count), (68 bytes).
    Removing key.o(.data), (1 bytes).
    Removing led.o(.rev16_text), (4 bytes).
    Removing led.o(.revsh_text), (4 bytes).
    Removing led.o(.rrx_text), (6 bytes).
    Removing led.o(i.led_init), (56 bytes).
    Removing usart.o(.rev16_text), (4 bytes).
    Removing usart.o(.revsh_text), (4 bytes).
    Removing usart.o(.rrx_text), (6 bytes).
    Removing timer.o(.rev16_text), (4 bytes).
    Removing timer.o(.revsh_text), (4 bytes).
    Removing timer.o(.rrx_text), (6 bytes).
    Removing timer.o(i.TIM3_Int_Init), (96 bytes).
    Removing tsensor.o(.rev16_text), (4 bytes).
    Removing tsensor.o(.revsh_text), (4 bytes).
    Removing tsensor.o(.rrx_text), (6 bytes).
    Removing tsensor.o(i.Get_Temprate), (136 bytes).
    Removing tsensor.o(i.T_Adc_Init), (124 bytes).
    Removing tsensor.o(i.T_Get_Adc), (52 bytes).
    Removing tsensor.o(i.T_Get_Adc_Average), (46 bytes).
    Removing tsensor.o(i.T_Get_Temp), (42 bytes).
    Removing lsens.o(.rev16_text), (4 bytes).
    Removing lsens.o(.revsh_text), (4 bytes).
    Removing lsens.o(.rrx_text), (6 bytes).
    Removing lsens.o(i.Lsens_Get_Val), (40 bytes).
    Removing lsens.o(i.Lsens_Init), (40 bytes).
    Removing adc.o(.rev16_text), (4 bytes).
    Removing adc.o(.revsh_text), (4 bytes).
    Removing adc.o(.rrx_text), (6 bytes).
    Removing adc.o(i.Adc3_Init), (124 bytes).
    Removing adc.o(i.Get_Adc3), (52 bytes).
    Removing usart_debug.o(.rev16_text), (4 bytes).
    Removing usart_debug.o(.revsh_text), (4 bytes).
    Removing usart_debug.o(.rrx_text), (6 bytes).
    Removing gpio_out.o(.rev16_text), (4 bytes).
    Removing gpio_out.o(.revsh_text), (4 bytes).
    Removing gpio_out.o(.rrx_text), (6 bytes).
    Removing gpio_out.o(i.LED_AllOn), (20 bytes).
    Removing gpio_out.o(i.LED_WriteAll), (92 bytes).
    Removing gpio_in.o(.rev16_text), (4 bytes).
    Removing gpio_in.o(.revsh_text), (4 bytes).
    Removing gpio_in.o(.rrx_text), (6 bytes).
    Removing gpio_in.o(i.SW_Read), (112 bytes).
    Removing dht11.o(.rev16_text), (4 bytes).
    Removing dht11.o(.revsh_text), (4 bytes).
    Removing dht11.o(.rrx_text), (6 bytes).
    Removing ds18b20.o(.rev16_text), (4 bytes).
    Removing ds18b20.o(.revsh_text), (4 bytes).
    Removing ds18b20.o(.rrx_text), (6 bytes).
    Removing infrared.o(.rev16_text), (4 bytes).
    Removing infrared.o(.revsh_text), (4 bytes).
    Removing infrared.o(.rrx_text), (6 bytes).
    Removing tlc5615.o(.rev16_text), (4 bytes).
    Removing tlc5615.o(.revsh_text), (4 bytes).
    Removing tlc5615.o(.rrx_text), (6 bytes).
    Removing tlc5615.o(i.TLC5615_SetVoltage), (42 bytes).
    Removing rs232.o(.rev16_text), (4 bytes).
    Removing rs232.o(.revsh_text), (4 bytes).
    Removing rs232.o(.rrx_text), (6 bytes).
    Removing rs485.o(.rev16_text), (4 bytes).
    Removing rs485.o(.revsh_text), (4 bytes).
    Removing rs485.o(.rrx_text), (6 bytes).
    Removing relay.o(.rev16_text), (4 bytes).
    Removing relay.o(.revsh_text), (4 bytes).
    Removing relay.o(.rrx_text), (6 bytes).
    Removing relay.o(i.Relay_Toggle), (64 bytes).
    Removing stepper.o(.rev16_text), (4 bytes).
    Removing stepper.o(.revsh_text), (4 bytes).
    Removing stepper.o(.rrx_text), (6 bytes).
    Removing encoder.o(.rev16_text), (4 bytes).
    Removing encoder.o(.revsh_text), (4 bytes).
    Removing encoder.o(.rrx_text), (6 bytes).
    Removing lcd12864.o(.rev16_text), (4 bytes).
    Removing lcd12864.o(.revsh_text), (4 bytes).
    Removing lcd12864.o(.rrx_text), (6 bytes).
    Removing lcd12864.o(i.LCD12864_DisplayFloat), (188 bytes).
    Removing lcd12864.o(i.LCD12864_DisplayNum), (100 bytes).
    Removing lcd12864.o(i.LCD12864_WriteChar), (12 bytes).
    Removing ch451.o(.rev16_text), (4 bytes).
    Removing ch451.o(.revsh_text), (4 bytes).
    Removing ch451.o(.rrx_text), (6 bytes).
    Removing ch451.o(i.CH451_SetBrightness), (36 bytes).
    Removing ch451.o(i.CH451_SetRaw), (36 bytes).
    Removing timer_pwm.o(.rev16_text), (4 bytes).
    Removing timer_pwm.o(.revsh_text), (4 bytes).
    Removing timer_pwm.o(.rrx_text), (6 bytes).
    Removing timer_pwm.o(i.LED_PWM_Init), (132 bytes).
    Removing timer_pwm.o(i.LED_PWM_SetBrightness), (40 bytes).
    Removing sensor_adc.o(.rev16_text), (4 bytes).
    Removing sensor_adc.o(.revsh_text), (4 bytes).
    Removing sensor_adc.o(.rrx_text), (6 bytes).
    Removing sensor_adc.o(i.Light_Read), (10 bytes).
    Removing sensor_adc.o(i.Thermistor_Read), (10 bytes).
    Removing delay_us.o(.rev16_text), (4 bytes).
    Removing delay_us.o(.revsh_text), (4 bytes).
    Removing delay_us.o(.rrx_text), (6 bytes).
    Removing heap_2.o(i.vPortInitialiseBlocks), (2 bytes).
    Removing heap_2.o(i.xPortGetFreeHeapSize), (12 bytes).
    Removing port.o(i.vPortEndScheduler), (2 bytes).
    Removing queue.o(i.uxQueueMessagesWaiting), (18 bytes).
    Removing queue.o(i.uxQueueMessagesWaitingFromISR), (6 bytes).
    Removing queue.o(i.uxQueueSpacesAvailable), (24 bytes).
    Removing queue.o(i.vQueueDelete), (14 bytes).
    Removing queue.o(i.xQueueGenericSendFromISR), (134 bytes).
    Removing queue.o(i.xQueueGiveFromISR), (120 bytes).
    Removing queue.o(i.xQueueIsQueueEmptyFromISR), (14 bytes).
    Removing queue.o(i.xQueueIsQueueFullFromISR), (18 bytes).
    Removing queue.o(i.xQueuePeekFromISR), (74 bytes).
    Removing queue.o(i.xQueueReceiveFromISR), (130 bytes).
    Removing tasks.o(i.pcTaskGetName), (24 bytes).
    Removing tasks.o(i.prvTaskIsTaskSuspended), (64 bytes).
    Removing tasks.o(i.ulTaskNotifyTake), (116 bytes).
    Removing tasks.o(i.uxTaskGetNumberOfTasks), (12 bytes).
    Removing tasks.o(i.uxTaskPriorityGet), (36 bytes).
    Removing tasks.o(i.uxTaskPriorityGetFromISR), (56 bytes).
    Removing tasks.o(i.uxTaskResetEventItemValue), (28 bytes).
    Removing tasks.o(i.vTaskDelayUntil), (116 bytes).
    Removing tasks.o(i.vTaskDelete), (204 bytes).
    Removing tasks.o(i.vTaskEndScheduler), (36 bytes).
    Removing tasks.o(i.vTaskNotifyGiveFromISR), (180 bytes).
    Removing tasks.o(i.vTaskPlaceOnUnorderedEventList), (44 bytes).
    Removing tasks.o(i.vTaskPrioritySet), (232 bytes).
    Removing tasks.o(i.vTaskResume), (120 bytes).
    Removing tasks.o(i.vTaskSuspend), (188 bytes).
    Removing tasks.o(i.xTaskGenericNotify), (196 bytes).
    Removing tasks.o(i.xTaskGenericNotifyFromISR), (252 bytes).
    Removing tasks.o(i.xTaskGetTickCount), (12 bytes).
    Removing tasks.o(i.xTaskGetTickCountFromISR), (12 bytes).
    Removing tasks.o(i.xTaskNotifyStateClear), (52 bytes).
    Removing tasks.o(i.xTaskNotifyWait), (160 bytes).
    Removing tasks.o(i.xTaskRemoveFromUnorderedEventList), (112 bytes).
    Removing tasks.o(i.xTaskResumeFromISR), (152 bytes).
    Removing misc.o(.rev16_text), (4 bytes).
    Removing misc.o(.revsh_text), (4 bytes).
    Removing misc.o(.rrx_text), (6 bytes).
    Removing misc.o(i.NVIC_SetVectorTable), (20 bytes).
    Removing misc.o(i.NVIC_SystemLPConfig), (32 bytes).
    Removing misc.o(i.SysTick_CLKSourceConfig), (40 bytes).
    Removing stm32f10x_adc.o(.rev16_text), (4 bytes).
    Removing stm32f10x_adc.o(.revsh_text), (4 bytes).
    Removing stm32f10x_adc.o(.rrx_text), (6 bytes).
    Removing stm32f10x_adc.o(i.ADC_AnalogWatchdogCmd), (20 bytes).
    Removing stm32f10x_adc.o(i.ADC_AnalogWatchdogSingleChannelConfig), (16 bytes).
    Removing stm32f10x_adc.o(i.ADC_AnalogWatchdogThresholdsConfig), (6 bytes).
    Removing stm32f10x_adc.o(i.ADC_AutoInjectedConvCmd), (22 bytes).
    Removing stm32f10x_adc.o(i.ADC_ClearFlag), (6 bytes).
    Removing stm32f10x_adc.o(i.ADC_ClearITPendingBit), (10 bytes).
    Removing stm32f10x_adc.o(i.ADC_DMACmd), (22 bytes).
    Removing stm32f10x_adc.o(i.ADC_DiscModeChannelCountConfig), (24 bytes).
    Removing stm32f10x_adc.o(i.ADC_DiscModeCmd), (22 bytes).
    Removing stm32f10x_adc.o(i.ADC_ExternalTrigConvCmd), (22 bytes).
    Removing stm32f10x_adc.o(i.ADC_ExternalTrigInjectedConvCmd), (22 bytes).
    Removing stm32f10x_adc.o(i.ADC_ExternalTrigInjectedConvConfig), (16 bytes).
    Removing stm32f10x_adc.o(i.ADC_GetDualModeConversionValue), (12 bytes).
    Removing stm32f10x_adc.o(i.ADC_GetITStatus), (36 bytes).
    Removing stm32f10x_adc.o(i.ADC_GetInjectedConversionValue), (28 bytes).
    Removing stm32f10x_adc.o(i.ADC_GetSoftwareStartConvStatus), (20 bytes).
    Removing stm32f10x_adc.o(i.ADC_GetSoftwareStartInjectedConvCmdStatus), (20 bytes).
    Removing stm32f10x_adc.o(i.ADC_ITConfig), (24 bytes).
    Removing stm32f10x_adc.o(i.ADC_InjectedChannelConfig), (130 bytes).
    Removing stm32f10x_adc.o(i.ADC_InjectedDiscModeCmd), (22 bytes).
    Removing stm32f10x_adc.o(i.ADC_InjectedSequencerLengthConfig), (24 bytes).
    Removing stm32f10x_adc.o(i.ADC_SetInjectedOffset), (20 bytes).
    Removing stm32f10x_adc.o(i.ADC_SoftwareStartInjectedConvCmd), (22 bytes).
    Removing stm32f10x_adc.o(i.ADC_StructInit), (18 bytes).
    Removing stm32f10x_adc.o(i.ADC_TempSensorVrefintCmd), (36 bytes).
    Removing stm32f10x_exti.o(.rev16_text), (4 bytes).
    Removing stm32f10x_exti.o(.revsh_text), (4 bytes).
    Removing stm32f10x_exti.o(.rrx_text), (6 bytes).
    Removing stm32f10x_exti.o(i.EXTI_ClearFlag), (12 bytes).
    Removing stm32f10x_exti.o(i.EXTI_DeInit), (36 bytes).
    Removing stm32f10x_exti.o(i.EXTI_GenerateSWInterrupt), (16 bytes).
    Removing stm32f10x_exti.o(i.EXTI_GetFlagStatus), (24 bytes).
    Removing stm32f10x_exti.o(i.EXTI_StructInit), (16 bytes).
    Removing stm32f10x_gpio.o(.rev16_text), (4 bytes).
    Removing stm32f10x_gpio.o(.revsh_text), (4 bytes).
    Removing stm32f10x_gpio.o(.rrx_text), (6 bytes).
    Removing stm32f10x_gpio.o(i.GPIO_AFIODeInit), (20 bytes).
    Removing stm32f10x_gpio.o(i.GPIO_DeInit), (200 bytes).
    Removing stm32f10x_gpio.o(i.GPIO_ETH_MediaInterfaceConfig), (12 bytes).
    Removing stm32f10x_gpio.o(i.GPIO_EventOutputCmd), (12 bytes).
    Removing stm32f10x_gpio.o(i.GPIO_EventOutputConfig), (32 bytes).
    Removing stm32f10x_gpio.o(i.GPIO_PinLockConfig), (18 bytes).
    Removing stm32f10x_gpio.o(i.GPIO_ReadInputData), (8 bytes).
    Removing stm32f10x_gpio.o(i.GPIO_ReadOutputData), (8 bytes).
    Removing stm32f10x_gpio.o(i.GPIO_ReadOutputDataBit), (18 bytes).
    Removing stm32f10x_gpio.o(i.GPIO_StructInit), (16 bytes).
    Removing stm32f10x_gpio.o(i.GPIO_Write), (4 bytes).
    Removing stm32f10x_gpio.o(i.GPIO_WriteBit), (10 bytes).
    Removing stm32f10x_rcc.o(.rev16_text), (4 bytes).
    Removing stm32f10x_rcc.o(.revsh_text), (4 bytes).
    Removing stm32f10x_rcc.o(.rrx_text), (6 bytes).
    Removing stm32f10x_rcc.o(i.RCC_ADCCLKConfig), (24 bytes).
    Removing stm32f10x_rcc.o(i.RCC_AHBPeriphClockCmd), (32 bytes).
    Removing stm32f10x_rcc.o(i.RCC_APB1PeriphResetCmd), (32 bytes).
    Removing stm32f10x_rcc.o(i.RCC_AdjustHSICalibrationValue), (24 bytes).
    Removing stm32f10x_rcc.o(i.RCC_BackupResetCmd), (12 bytes).
    Removing stm32f10x_rcc.o(i.RCC_ClearFlag), (20 bytes).
    Removing stm32f10x_rcc.o(i.RCC_ClearITPendingBit), (12 bytes).
    Removing stm32f10x_rcc.o(i.RCC_ClockSecuritySystemCmd), (12 bytes).
    Removing stm32f10x_rcc.o(i.RCC_DeInit), (76 bytes).
    Removing stm32f10x_rcc.o(i.RCC_GetFlagStatus), (60 bytes).
    Removing stm32f10x_rcc.o(i.RCC_GetITStatus), (24 bytes).
    Removing stm32f10x_rcc.o(i.RCC_GetSYSCLKSource), (16 bytes).
    Removing stm32f10x_rcc.o(i.RCC_HCLKConfig), (24 bytes).
    Removing stm32f10x_rcc.o(i.RCC_HSEConfig), (76 bytes).
    Removing stm32f10x_rcc.o(i.RCC_HSICmd), (12 bytes).
    Removing stm32f10x_rcc.o(i.RCC_ITConfig), (32 bytes).
    Removing stm32f10x_rcc.o(i.RCC_LSEConfig), (52 bytes).
    Removing stm32f10x_rcc.o(i.RCC_LSICmd), (12 bytes).
    Removing stm32f10x_rcc.o(i.RCC_MCOConfig), (12 bytes).
    Removing stm32f10x_rcc.o(i.RCC_PCLK1Config), (24 bytes).
    Removing stm32f10x_rcc.o(i.RCC_PCLK2Config), (24 bytes).
    Removing stm32f10x_rcc.o(i.RCC_PLLCmd), (12 bytes).
    Removing stm32f10x_rcc.o(i.RCC_PLLConfig), (28 bytes).
    Removing stm32f10x_rcc.o(i.RCC_RTCCLKCmd), (12 bytes).
    Removing stm32f10x_rcc.o(i.RCC_RTCCLKConfig), (16 bytes).
    Removing stm32f10x_rcc.o(i.RCC_SYSCLKConfig), (24 bytes).
    Removing stm32f10x_rcc.o(i.RCC_USBCLKConfig), (12 bytes).
    Removing stm32f10x_rcc.o(i.RCC_WaitForHSEStartUp), (56 bytes).
    Removing stm32f10x_tim.o(.rev16_text), (4 bytes).
    Removing stm32f10x_tim.o(.revsh_text), (4 bytes).
    Removing stm32f10x_tim.o(.rrx_text), (6 bytes).
    Removing stm32f10x_tim.o(i.TI1_Config), (128 bytes).
    Removing stm32f10x_tim.o(i.TI2_Config), (152 bytes).
    Removing stm32f10x_tim.o(i.TI3_Config), (144 bytes).
    Removing stm32f10x_tim.o(i.TI4_Config), (152 bytes).
    Removing stm32f10x_tim.o(i.TIM_ARRPreloadConfig), (24 bytes).
    Removing stm32f10x_tim.o(i.TIM_BDTRConfig), (32 bytes).
    Removing stm32f10x_tim.o(i.TIM_BDTRStructInit), (18 bytes).
    Removing stm32f10x_tim.o(i.TIM_CCPreloadControl), (24 bytes).
    Removing stm32f10x_tim.o(i.TIM_CCxCmd), (30 bytes).
    Removing stm32f10x_tim.o(i.TIM_CCxNCmd), (30 bytes).
    Removing stm32f10x_tim.o(i.TIM_ClearFlag), (6 bytes).
    Removing stm32f10x_tim.o(i.TIM_ClearITPendingBit), (6 bytes).
    Removing stm32f10x_tim.o(i.TIM_ClearOC1Ref), (18 bytes).
    Removing stm32f10x_tim.o(i.TIM_ClearOC2Ref), (24 bytes).
    Removing stm32f10x_tim.o(i.TIM_ClearOC3Ref), (18 bytes).
    Removing stm32f10x_tim.o(i.TIM_ClearOC4Ref), (24 bytes).
    Removing stm32f10x_tim.o(i.TIM_CounterModeConfig), (18 bytes).
    Removing stm32f10x_tim.o(i.TIM_CtrlPWMOutputs), (30 bytes).
    Removing stm32f10x_tim.o(i.TIM_DMACmd), (18 bytes).
    Removing stm32f10x_tim.o(i.TIM_DMAConfig), (10 bytes).
    Removing stm32f10x_tim.o(i.TIM_DeInit), (488 bytes).
    Removing stm32f10x_tim.o(i.TIM_ETRClockMode1Config), (54 bytes).
    Removing stm32f10x_tim.o(i.TIM_ETRClockMode2Config), (32 bytes).
    Removing stm32f10x_tim.o(i.TIM_ETRConfig), (28 bytes).
    Removing stm32f10x_tim.o(i.TIM_EncoderInterfaceConfig), (66 bytes).
    Removing stm32f10x_tim.o(i.TIM_ForcedOC1Config), (18 bytes).
    Removing stm32f10x_tim.o(i.TIM_ForcedOC2Config), (26 bytes).
    Removing stm32f10x_tim.o(i.TIM_ForcedOC3Config), (18 bytes).
    Removing stm32f10x_tim.o(i.TIM_ForcedOC4Config), (26 bytes).
    Removing stm32f10x_tim.o(i.TIM_GenerateEvent), (4 bytes).
    Removing stm32f10x_tim.o(i.TIM_GetCapture1), (6 bytes).
    Removing stm32f10x_tim.o(i.TIM_GetCapture2), (6 bytes).
    Removing stm32f10x_tim.o(i.TIM_GetCapture3), (6 bytes).
    Removing stm32f10x_tim.o(i.TIM_GetCapture4), (8 bytes).
    Removing stm32f10x_tim.o(i.TIM_GetCounter), (6 bytes).
    Removing stm32f10x_tim.o(i.TIM_GetFlagStatus), (18 bytes).
    Removing stm32f10x_tim.o(i.TIM_GetITStatus), (34 bytes).
    Removing stm32f10x_tim.o(i.TIM_GetPrescaler), (6 bytes).
    Removing stm32f10x_tim.o(i.TIM_ICInit), (172 bytes).
    Removing stm32f10x_tim.o(i.TIM_ICStructInit), (18 bytes).
    Removing stm32f10x_tim.o(i.TIM_ITConfig), (18 bytes).
    Removing stm32f10x_tim.o(i.TIM_ITRxExternalClockConfig), (24 bytes).
    Removing stm32f10x_tim.o(i.TIM_InternalClockConfig), (12 bytes).
    Removing stm32f10x_tim.o(i.TIM_OC1FastConfig), (18 bytes).
    Removing stm32f10x_tim.o(i.TIM_OC1NPolarityConfig), (18 bytes).
    Removing stm32f10x_tim.o(i.TIM_OC1PolarityConfig), (18 bytes).
    Removing stm32f10x_tim.o(i.TIM_OC1PreloadConfig), (18 bytes).
    Removing stm32f10x_tim.o(i.TIM_OC2FastConfig), (26 bytes).
    Removing stm32f10x_tim.o(i.TIM_OC2NPolarityConfig), (26 bytes).
    Removing stm32f10x_tim.o(i.TIM_OC2PolarityConfig), (26 bytes).
    Removing stm32f10x_tim.o(i.TIM_OC2PreloadConfig), (26 bytes).
    Removing stm32f10x_tim.o(i.TIM_OC3FastConfig), (18 bytes).
    Removing stm32f10x_tim.o(i.TIM_OC3NPolarityConfig), (26 bytes).
    Removing stm32f10x_tim.o(i.TIM_OC3PolarityConfig), (26 bytes).
    Removing stm32f10x_tim.o(i.TIM_OC3PreloadConfig), (18 bytes).
    Removing stm32f10x_tim.o(i.TIM_OC4FastConfig), (26 bytes).
    Removing stm32f10x_tim.o(i.TIM_OC4Init), (124 bytes).
    Removing stm32f10x_tim.o(i.TIM_OC4PolarityConfig), (26 bytes).
    Removing stm32f10x_tim.o(i.TIM_OC4PreloadConfig), (26 bytes).
    Removing stm32f10x_tim.o(i.TIM_OCStructInit), (20 bytes).
    Removing stm32f10x_tim.o(i.TIM_PWMIConfig), (124 bytes).
    Removing stm32f10x_tim.o(i.TIM_PrescalerConfig), (6 bytes).
    Removing stm32f10x_tim.o(i.TIM_SelectCCDMA), (24 bytes).
    Removing stm32f10x_tim.o(i.TIM_SelectCOM), (24 bytes).
    Removing stm32f10x_tim.o(i.TIM_SelectHallSensor), (24 bytes).
    Removing stm32f10x_tim.o(i.TIM_SelectInputTrigger), (18 bytes).
    Removing stm32f10x_tim.o(i.TIM_SelectMasterSlaveMode), (18 bytes).
    Removing stm32f10x_tim.o(i.TIM_SelectOCxM), (82 bytes).
    Removing stm32f10x_tim.o(i.TIM_SelectOnePulseMode), (18 bytes).
    Removing stm32f10x_tim.o(i.TIM_SelectOutputTrigger), (18 bytes).
    Removing stm32f10x_tim.o(i.TIM_SelectSlaveMode), (18 bytes).
    Removing stm32f10x_tim.o(i.TIM_SetAutoreload), (4 bytes).
    Removing stm32f10x_tim.o(i.TIM_SetClockDivision), (18 bytes).
    Removing stm32f10x_tim.o(i.TIM_SetCompare4), (6 bytes).
    Removing stm32f10x_tim.o(i.TIM_SetIC1Prescaler), (18 bytes).
    Removing stm32f10x_tim.o(i.TIM_SetIC2Prescaler), (26 bytes).
    Removing stm32f10x_tim.o(i.TIM_SetIC3Prescaler), (18 bytes).
    Removing stm32f10x_tim.o(i.TIM_SetIC4Prescaler), (26 bytes).
    Removing stm32f10x_tim.o(i.TIM_TIxExternalClockConfig), (62 bytes).
    Removing stm32f10x_tim.o(i.TIM_TimeBaseStructInit), (18 bytes).
    Removing stm32f10x_tim.o(i.TIM_UpdateDisableConfig), (24 bytes).
    Removing stm32f10x_tim.o(i.TIM_UpdateRequestConfig), (24 bytes).
    Removing stm32f10x_usart.o(.rev16_text), (4 bytes).
    Removing stm32f10x_usart.o(.revsh_text), (4 bytes).
    Removing stm32f10x_usart.o(.rrx_text), (6 bytes).
    Removing stm32f10x_usart.o(i.USART_ClearFlag), (18 bytes).
    Removing stm32f10x_usart.o(i.USART_ClearITPendingBit), (30 bytes).
    Removing stm32f10x_usart.o(i.USART_ClockInit), (34 bytes).
    Removing stm32f10x_usart.o(i.USART_ClockStructInit), (12 bytes).
    Removing stm32f10x_usart.o(i.USART_DMACmd), (18 bytes).
    Removing stm32f10x_usart.o(i.USART_DeInit), (156 bytes).
    Removing stm32f10x_usart.o(i.USART_HalfDuplexCmd), (24 bytes).
    Removing stm32f10x_usart.o(i.USART_IrDACmd), (24 bytes).
    Removing stm32f10x_usart.o(i.USART_IrDAConfig), (18 bytes).
    Removing stm32f10x_usart.o(i.USART_LINBreakDetectLengthConfig), (18 bytes).
    Removing stm32f10x_usart.o(i.USART_LINCmd), (24 bytes).
    Removing stm32f10x_usart.o(i.USART_OneBitMethodCmd), (24 bytes).
    Removing stm32f10x_usart.o(i.USART_OverSampling8Cmd), (22 bytes).
    Removing stm32f10x_usart.o(i.USART_ReceiverWakeUpCmd), (24 bytes).
    Removing stm32f10x_usart.o(i.USART_SendBreak), (10 bytes).
    Removing stm32f10x_usart.o(i.USART_SetAddress), (18 bytes).
    Removing stm32f10x_usart.o(i.USART_SetGuardTime), (16 bytes).
    Removing stm32f10x_usart.o(i.USART_SetPrescaler), (16 bytes).
    Removing stm32f10x_usart.o(i.USART_SmartCardCmd), (24 bytes).
    Removing stm32f10x_usart.o(i.USART_SmartCardNACKCmd), (24 bytes).
    Removing stm32f10x_usart.o(i.USART_StructInit), (24 bytes).
    Removing stm32f10x_usart.o(i.USART_WakeUpConfig), (18 bytes).
    Removing system_stm32f10x.o(.rev16_text), (4 bytes).
    Removing system_stm32f10x.o(.revsh_text), (4 bytes).
    Removing system_stm32f10x.o(.rrx_text), (6 bytes).
    Removing system_stm32f10x.o(i.SystemCoreClockUpdate), (164 bytes).

355 unused section(s) (total 11159 bytes) removed from the image.

==============================================================================

Image Symbol Table

    Local Symbols

    Symbol Name                              Value     Ov Type        Size  Object(Section)

    ../clib/angel/boardlib.s                 0x00000000   Number         0  boardinit2.o ABSOLUTE
    ../clib/angel/boardlib.s                 0x00000000   Number         0  boardinit1.o ABSOLUTE
    ../clib/angel/boardlib.s                 0x00000000   Number         0  boardshut.o ABSOLUTE
    ../clib/angel/boardlib.s                 0x00000000   Number         0  boardinit3.o ABSOLUTE
    ../clib/angel/handlers.s                 0x00000000   Number         0  __scatter_zi.o ABSOLUTE
    ../clib/angel/handlers.s                 0x00000000   Number         0  __scatter_copy.o ABSOLUTE
    ../clib/angel/kernel.s                   0x00000000   Number         0  __rtentry2.o ABSOLUTE
    ../clib/angel/kernel.s                   0x00000000   Number         0  __rtentry.o ABSOLUTE
    ../clib/angel/kernel.s                   0x00000000   Number         0  rtexit.o ABSOLUTE
    ../clib/angel/kernel.s                   0x00000000   Number         0  rtexit2.o ABSOLUTE
    ../clib/angel/kernel.s                   0x00000000   Number         0  __rtentry4.o ABSOLUTE
    ../clib/angel/rt.s                       0x00000000   Number         0  rt_locale_intlibspace.o ABSOLUTE
    ../clib/angel/rt.s                       0x00000000   Number         0  rt_locale.o ABSOLUTE
    ../clib/angel/rt.s                       0x00000000   Number         0  rt_raise.o ABSOLUTE
    ../clib/angel/scatter.s                  0x00000000   Number         0  __scatter.o ABSOLUTE
    ../clib/angel/startup.s                  0x00000000   Number         0  __main.o ABSOLUTE
    ../clib/angel/sys.s                      0x00000000   Number         0  use_no_semi.o ABSOLUTE
    ../clib/angel/sys.s                      0x00000000   Number         0  libspace.o ABSOLUTE
    ../clib/angel/sys.s                      0x00000000   Number         0  sys_stackheap_outer.o ABSOLUTE
    ../clib/angel/sys.s                      0x00000000   Number         0  use_no_semi_2.o ABSOLUTE
    ../clib/angel/sys.s                      0x00000000   Number         0  indicate_semi.o ABSOLUTE
    ../clib/angel/sysapp.c                   0x00000000   Number         0  sys_command.o ABSOLUTE
    ../clib/angel/sysapp.c                   0x00000000   Number         0  sys_wrch.o ABSOLUTE
    ../clib/armsys.c                         0x00000000   Number         0  _get_argv_nomalloc.o ABSOLUTE
    ../clib/armsys.c                         0x00000000   Number         0  no_argv.o ABSOLUTE
    ../clib/armsys.c                         0x00000000   Number         0  argv_veneer.o ABSOLUTE
    ../clib/armsys.c                         0x00000000   Number         0  argv_veneer.o ABSOLUTE
    ../clib/bigflt.c                         0x00000000   Number         0  bigflt0.o ABSOLUTE
    ../clib/btod.s                           0x00000000   Number         0  btod.o ABSOLUTE
    ../clib/heapalloc.c                      0x00000000   Number         0  hrguard.o ABSOLUTE
    ../clib/heapaux.c                        0x00000000   Number         0  heapauxi.o ABSOLUTE
    ../clib/libinit.s                        0x00000000   Number         0  libinit2.o ABSOLUTE
    ../clib/libinit.s                        0x00000000   Number         0  libshutdown.o ABSOLUTE
    ../clib/libinit.s                        0x00000000   Number         0  libinit.o ABSOLUTE
    ../clib/libinit.s                        0x00000000   Number         0  libshutdown2.o ABSOLUTE
    ../clib/locale.s                         0x00000000   Number         0  lc_numeric_c.o ABSOLUTE
    ../clib/longlong.s                       0x00000000   Number         0  lludiv10.o ABSOLUTE
    ../clib/memcpset.s                       0x00000000   Number         0  strcmpv7m.o ABSOLUTE
    ../clib/memcpset.s                       0x00000000   Number         0  rt_memcpy_w.o ABSOLUTE
    ../clib/memcpset.s                       0x00000000   Number         0  rt_memcpy_v6.o ABSOLUTE
    ../clib/misc.s                           0x00000000   Number         0  printf_stubs.o ABSOLUTE
    ../clib/printf.c                         0x00000000   Number         0  __printf_nopercent.o ABSOLUTE
    ../clib/printf.c                         0x00000000   Number         0  __printf_ss.o ABSOLUTE
    ../clib/printf.c                         0x00000000   Number         0  __printf_flags.o ABSOLUTE
    ../clib/printf.c                         0x00000000   Number         0  _printf_hex_int_ll_ptr.o ABSOLUTE
    ../clib/printf.c                         0x00000000   Number         0  _printf_hex_ll_ptr.o ABSOLUTE
    ../clib/printf.c                         0x00000000   Number         0  _printf_hex_int_ptr.o ABSOLUTE
    ../clib/printf.c                         0x00000000   Number         0  _printf_hex_ptr.o ABSOLUTE
    ../clib/printf.c                         0x00000000   Number         0  _printf_hex_int_ll.o ABSOLUTE
    ../clib/printf.c                         0x00000000   Number         0  _printf_hex_int.o ABSOLUTE
    ../clib/printf.c                         0x00000000   Number         0  _printf_hex_ll.o ABSOLUTE
    ../clib/printf.c                         0x00000000   Number         0  __2printf.o ABSOLUTE
    ../clib/printf.c                         0x00000000   Number         0  _printf_dec.o ABSOLUTE
    ../clib/printf.c                         0x00000000   Number         0  _printf_str.o ABSOLUTE
    ../clib/printf.c                         0x00000000   Number         0  _printf_pad.o ABSOLUTE
    ../clib/printf.c                         0x00000000   Number         0  __printf.o ABSOLUTE
    ../clib/printf.c                         0x00000000   Number         0  _sputc.o ABSOLUTE
    ../clib/printf.c                         0x00000000   Number         0  noretval__2sprintf.o ABSOLUTE
    ../clib/printf.c                         0x00000000   Number         0  __printf_flags_ss.o ABSOLUTE
    ../clib/printf.c                         0x00000000   Number         0  noretval__2printf.o ABSOLUTE
    ../clib/printf.c                         0x00000000   Number         0  __2sprintf.o ABSOLUTE
    ../clib/printf.c                         0x00000000   Number         0  _printf_char.o ABSOLUTE
    ../clib/printf.c                         0x00000000   Number         0  _printf_fp_infnan.o ABSOLUTE
    ../clib/printf.c                         0x00000000   Number         0  _printf_char_file.o ABSOLUTE
    ../clib/printf.c                         0x00000000   Number         0  __printf_wp.o ABSOLUTE
    ../clib/printf.c                         0x00000000   Number         0  __printf_flags_wp.o ABSOLUTE
    ../clib/printf.c                         0x00000000   Number         0  __printf_ss_wp.o ABSOLUTE
    ../clib/printf.c                         0x00000000   Number         0  __printf_flags_ss_wp.o ABSOLUTE
    ../clib/printf.c                         0x00000000   Number         0  _printf_intcommon.o ABSOLUTE
    ../clib/printf.c                         0x00000000   Number         0  _printf_fp_dec.o ABSOLUTE
    ../clib/printf.c                         0x00000000   Number         0  _printf_char_common.o ABSOLUTE
    ../clib/printf_percent.s                 0x00000000   Number         0  _printf_x.o ABSOLUTE
    ../clib/printf_percent.s                 0x00000000   Number         0  _printf_s.o ABSOLUTE
    ../clib/printf_percent.s                 0x00000000   Number         0  _printf_percent_end.o ABSOLUTE
    ../clib/printf_percent.s                 0x00000000   Number         0  _printf_percent.o ABSOLUTE
    ../clib/printf_percent.s                 0x00000000   Number         0  _printf_c.o ABSOLUTE
    ../clib/printf_percent.s                 0x00000000   Number         0  _printf_f.o ABSOLUTE
    ../clib/printf_percent.s                 0x00000000   Number         0  _printf_u.o ABSOLUTE
    ../clib/printf_percent.s                 0x00000000   Number         0  _printf_d.o ABSOLUTE
    ../clib/signal.c                         0x00000000   Number         0  defsig_general.o ABSOLUTE
    ../clib/signal.c                         0x00000000   Number         0  defsig_exit.o ABSOLUTE
    ../clib/signal.c                         0x00000000   Number         0  defsig_rtmem_outer.o ABSOLUTE
    ../clib/signal.c                         0x00000000   Number         0  defsig_rtmem_formal.o ABSOLUTE
    ../clib/signal.c                         0x00000000   Number         0  __raise.o ABSOLUTE
    ../clib/signal.c                         0x00000000   Number         0  defsig_abrt_inner.o ABSOLUTE
    ../clib/signal.c                         0x00000000   Number         0  defsig_rtmem_inner.o ABSOLUTE
    ../clib/signal.c                         0x00000000   Number         0  defsig_fpe_inner.o ABSOLUTE
    ../clib/signal.c                         0x00000000   Number         0  defsig_rtred_inner.o ABSOLUTE
    ../clib/signal.c                         0x00000000   Number         0  defsig_pvfn_inner.o ABSOLUTE
    ../clib/signal.c                         0x00000000   Number         0  defsig_stak_inner.o ABSOLUTE
    ../clib/signal.c                         0x00000000   Number         0  defsig_cppl_inner.o ABSOLUTE
    ../clib/signal.c                         0x00000000   Number         0  defsig_segv_inner.o ABSOLUTE
    ../clib/signal.c                         0x00000000   Number         0  defsig_other.o ABSOLUTE
    ../clib/signal.s                         0x00000000   Number         0  defsig.o ABSOLUTE
    ../clib/stdio.c                          0x00000000   Number         0  ferror.o ABSOLUTE
    ../clib/stdio.c                          0x00000000   Number         0  ferror_locked.o ABSOLUTE
    ../clib/stdlib.c                         0x00000000   Number         0  exit.o ABSOLUTE
    ../fplib/daddsub.s                       0x00000000   Number         0  daddsub_clz.o ABSOLUTE
    ../fplib/ddiv.s                          0x00000000   Number         0  ddiv.o ABSOLUTE
    ../fplib/dfix.s                          0x00000000   Number         0  dfix.o ABSOLUTE
    ../fplib/dmul.s                          0x00000000   Number         0  dmul.o ABSOLUTE
    ../fplib/dnaninf.s                       0x00000000   Number         0  dnaninf.o ABSOLUTE
    ../fplib/dretinf.s                       0x00000000   Number         0  dretinf.o ABSOLUTE
    ../fplib/f2d.s                           0x00000000   Number         0  f2d.o ABSOLUTE
    ../fplib/fdiv.s                          0x00000000   Number         0  fdiv.o ABSOLUTE
    ../fplib/ffix.s                          0x00000000   Number         0  ffix.o ABSOLUTE
    ../fplib/fflt.s                          0x00000000   Number         0  fflt_clz.o ABSOLUTE
    ../fplib/fmul.s                          0x00000000   Number         0  fmul.o ABSOLUTE
    ../fplib/fnaninf.s                       0x00000000   Number         0  fnaninf.o ABSOLUTE
    ../fplib/fpinit.s                        0x00000000   Number         0  fpinit.o ABSOLUTE
    ../fplib/fretinf.s                       0x00000000   Number         0  fretinf.o ABSOLUTE
    ../fplib/istatus.s                       0x00000000   Number         0  istatus.o ABSOLUTE
    ../fplib/printf1.s                       0x00000000   Number         0  printf1.o ABSOLUTE
    ../fplib/usenofp.s                       0x00000000   Number         0  usenofp.o ABSOLUTE
    ../mathlib/fpclassify.c                  0x00000000   Number         0  fpclassify.o ABSOLUTE
    ..\\freertos\\port.c                     0x00000000   Number         0  port.o ABSOLUTE
    ..\\lib\\adc.c                           0x00000000   Number         0  adc.o ABSOLUTE
    ..\\lib\\ch451.c                         0x00000000   Number         0  ch451.o ABSOLUTE
    ..\\lib\\delay.c                         0x00000000   Number         0  delay.o ABSOLUTE
    ..\\lib\\delay_us.c                      0x00000000   Number         0  delay_us.o ABSOLUTE
    ..\\lib\\dht11.c                         0x00000000   Number         0  dht11.o ABSOLUTE
    ..\\lib\\ds18b20.c                       0x00000000   Number         0  ds18b20.o ABSOLUTE
    ..\\lib\\encoder.c                       0x00000000   Number         0  encoder.o ABSOLUTE
    ..\\lib\\gpio_in.c                       0x00000000   Number         0  gpio_in.o ABSOLUTE
    ..\\lib\\gpio_out.c                      0x00000000   Number         0  gpio_out.o ABSOLUTE
    ..\\lib\\infrared.c                      0x00000000   Number         0  infrared.o ABSOLUTE
    ..\\lib\\key.c                           0x00000000   Number         0  key.o ABSOLUTE
    ..\\lib\\lcd12864.c                      0x00000000   Number         0  lcd12864.o ABSOLUTE
    ..\\lib\\led.c                           0x00000000   Number         0  led.o ABSOLUTE
    ..\\lib\\lsens.c                         0x00000000   Number         0  lsens.o ABSOLUTE
    ..\\lib\\relay.c                         0x00000000   Number         0  relay.o ABSOLUTE
    ..\\lib\\rs232.c                         0x00000000   Number         0  rs232.o ABSOLUTE
    ..\\lib\\rs485.c                         0x00000000   Number         0  rs485.o ABSOLUTE
    ..\\lib\\sensor_adc.c                    0x00000000   Number         0  sensor_adc.o ABSOLUTE
    ..\\lib\\stepper.c                       0x00000000   Number         0  stepper.o ABSOLUTE
    ..\\lib\\sys.c                           0x00000000   Number         0  sys.o ABSOLUTE
    ..\\lib\\timer.c                         0x00000000   Number         0  timer.o ABSOLUTE
    ..\\lib\\timer_pwm.c                     0x00000000   Number         0  timer_pwm.o ABSOLUTE
    ..\\lib\\tlc5615.c                       0x00000000   Number         0  tlc5615.o ABSOLUTE
    ..\\lib\\tsensor.c                       0x00000000   Number         0  tsensor.o ABSOLUTE
    ..\\lib\\usart.c                         0x00000000   Number         0  usart.o ABSOLUTE
    ..\\lib\\usart_debug.c                   0x00000000   Number         0  usart_debug.o ABSOLUTE
    ..\freertos\croutine.c                   0x00000000   Number         0  croutine.o ABSOLUTE
    ..\freertos\heap_2.c                     0x00000000   Number         0  heap_2.o ABSOLUTE
    ..\freertos\list.c                       0x00000000   Number         0  list.o ABSOLUTE
    ..\freertos\port.c                       0x00000000   Number         0  port.o ABSOLUTE
    ..\freertos\queue.c                      0x00000000   Number         0  queue.o ABSOLUTE
    ..\freertos\tasks.c                      0x00000000   Number         0  tasks.o ABSOLUTE
    ..\freertos\timers.c                     0x00000000   Number         0  timers.o ABSOLUTE
    ..\lib\adc.c                             0x00000000   Number         0  adc.o ABSOLUTE
    ..\lib\ch451.c                           0x00000000   Number         0  ch451.o ABSOLUTE
    ..\lib\delay.c                           0x00000000   Number         0  delay.o ABSOLUTE
    ..\lib\delay_us.c                        0x00000000   Number         0  delay_us.o ABSOLUTE
    ..\lib\dht11.c                           0x00000000   Number         0  dht11.o ABSOLUTE
    ..\lib\ds18b20.c                         0x00000000   Number         0  ds18b20.o ABSOLUTE
    ..\lib\encoder.c                         0x00000000   Number         0  encoder.o ABSOLUTE
    ..\lib\gpio_in.c                         0x00000000   Number         0  gpio_in.o ABSOLUTE
    ..\lib\gpio_out.c                        0x00000000   Number         0  gpio_out.o ABSOLUTE
    ..\lib\infrared.c                        0x00000000   Number         0  infrared.o ABSOLUTE
    ..\lib\key.c                             0x00000000   Number         0  key.o ABSOLUTE
    ..\lib\lcd12864.c                        0x00000000   Number         0  lcd12864.o ABSOLUTE
    ..\lib\led.c                             0x00000000   Number         0  led.o ABSOLUTE
    ..\lib\lsens.c                           0x00000000   Number         0  lsens.o ABSOLUTE
    ..\lib\relay.c                           0x00000000   Number         0  relay.o ABSOLUTE
    ..\lib\rs232.c                           0x00000000   Number         0  rs232.o ABSOLUTE
    ..\lib\rs485.c                           0x00000000   Number         0  rs485.o ABSOLUTE
    ..\lib\sensor_adc.c                      0x00000000   Number         0  sensor_adc.o ABSOLUTE
    ..\lib\stepper.c                         0x00000000   Number         0  stepper.o ABSOLUTE
    ..\lib\sys.c                             0x00000000   Number         0  sys.o ABSOLUTE
    ..\lib\timer.c                           0x00000000   Number         0  timer.o ABSOLUTE
    ..\lib\timer_pwm.c                       0x00000000   Number         0  timer_pwm.o ABSOLUTE
    ..\lib\tlc5615.c                         0x00000000   Number         0  tlc5615.o ABSOLUTE
    ..\lib\tsensor.c                         0x00000000   Number         0  tsensor.o ABSOLUTE
    ..\lib\usart.c                           0x00000000   Number         0  usart.o ABSOLUTE
    ..\lib\usart_debug.c                     0x00000000   Number         0  usart_debug.o ABSOLUTE
    D:/Software/Keil5/ARM/PACK/Keil/STM32F1xx_DFP/2.4.0/Device/StdPeriph_Driver/src/misc.c 0x00000000   Number         0  misc.o ABSOLUTE
    D:/Software/Keil5/ARM/PACK/Keil/STM32F1xx_DFP/2.4.0/Device/StdPeriph_Driver/src/stm32f10x_adc.c 0x00000000   Number         0  stm32f10x_adc.o ABSOLUTE
    D:/Software/Keil5/ARM/PACK/Keil/STM32F1xx_DFP/2.4.0/Device/StdPeriph_Driver/src/stm32f10x_exti.c 0x00000000   Number         0  stm32f10x_exti.o ABSOLUTE
    D:/Software/Keil5/ARM/PACK/Keil/STM32F1xx_DFP/2.4.0/Device/StdPeriph_Driver/src/stm32f10x_gpio.c 0x00000000   Number         0  stm32f10x_gpio.o ABSOLUTE
    D:/Software/Keil5/ARM/PACK/Keil/STM32F1xx_DFP/2.4.0/Device/StdPeriph_Driver/src/stm32f10x_rcc.c 0x00000000   Number         0  stm32f10x_rcc.o ABSOLUTE
    D:/Software/Keil5/ARM/PACK/Keil/STM32F1xx_DFP/2.4.0/Device/StdPeriph_Driver/src/stm32f10x_tim.c 0x00000000   Number         0  stm32f10x_tim.o ABSOLUTE
    D:/Software/Keil5/ARM/PACK/Keil/STM32F1xx_DFP/2.4.0/Device/StdPeriph_Driver/src/stm32f10x_usart.c 0x00000000   Number         0  stm32f10x_usart.o ABSOLUTE
    D:\Software\Keil5\ARM\PACK\Keil\STM32F1xx_DFP\2.4.0\Device\StdPeriph_Driver\src\misc.c 0x00000000   Number         0  misc.o ABSOLUTE
    D:\Software\Keil5\ARM\PACK\Keil\STM32F1xx_DFP\2.4.0\Device\StdPeriph_Driver\src\stm32f10x_adc.c 0x00000000   Number         0  stm32f10x_adc.o ABSOLUTE
    D:\Software\Keil5\ARM\PACK\Keil\STM32F1xx_DFP\2.4.0\Device\StdPeriph_Driver\src\stm32f10x_exti.c 0x00000000   Number         0  stm32f10x_exti.o ABSOLUTE
    D:\Software\Keil5\ARM\PACK\Keil\STM32F1xx_DFP\2.4.0\Device\StdPeriph_Driver\src\stm32f10x_gpio.c 0x00000000   Number         0  stm32f10x_gpio.o ABSOLUTE
    D:\Software\Keil5\ARM\PACK\Keil\STM32F1xx_DFP\2.4.0\Device\StdPeriph_Driver\src\stm32f10x_rcc.c 0x00000000   Number         0  stm32f10x_rcc.o ABSOLUTE
    D:\Software\Keil5\ARM\PACK\Keil\STM32F1xx_DFP\2.4.0\Device\StdPeriph_Driver\src\stm32f10x_tim.c 0x00000000   Number         0  stm32f10x_tim.o ABSOLUTE
    D:\Software\Keil5\ARM\PACK\Keil\STM32F1xx_DFP\2.4.0\Device\StdPeriph_Driver\src\stm32f10x_usart.c 0x00000000   Number         0  stm32f10x_usart.o ABSOLUTE
    RTE/Device/STM32F103VE/startup_stm32f10x_hd.s 0x00000000   Number         0  startup_stm32f10x_hd.o ABSOLUTE
    RTE/Device/STM32F103VE/system_stm32f10x.c 0x00000000   Number         0  system_stm32f10x.o ABSOLUTE
    RTE\Device\STM32F103VE\system_stm32f10x.c 0x00000000   Number         0  system_stm32f10x.o ABSOLUTE
    dc.s                                     0x00000000   Number         0  dc.o ABSOLUTE
    freertos_tasks.c                         0x00000000   Number         0  freertos_tasks.o ABSOLUTE
    freertos_tasks.c                         0x00000000   Number         0  freertos_tasks.o ABSOLUTE
    main.c                                   0x00000000   Number         0  main.o ABSOLUTE
    main.c                                   0x00000000   Number         0  main.o ABSOLUTE
    RESET                                    0x08000000   Section      304  startup_stm32f10x_hd.o(RESET)
    !!!main                                  0x08000130   Section        8  __main.o(!!!main)
    !!!scatter                               0x08000138   Section       52  __scatter.o(!!!scatter)
    !!handler_copy                           0x0800016c   Section       26  __scatter_copy.o(!!handler_copy)
    !!handler_zi                             0x08000188   Section       28  __scatter_zi.o(!!handler_zi)
    .ARM.Collect$$_printf_percent$$00000000  0x080001a4   Section        0  _printf_percent.o(.ARM.Collect$$_printf_percent$$00000000)
    .ARM.Collect$$_printf_percent$$00000003  0x080001a4   Section        6  _printf_f.o(.ARM.Collect$$_printf_percent$$00000003)
    .ARM.Collect$$_printf_percent$$00000009  0x080001aa   Section        6  _printf_d.o(.ARM.Collect$$_printf_percent$$00000009)
    .ARM.Collect$$_printf_percent$$0000000A  0x080001b0   Section        6  _printf_u.o(.ARM.Collect$$_printf_percent$$0000000A)
    .ARM.Collect$$_printf_percent$$0000000C  0x080001b6   Section        6  _printf_x.o(.ARM.Collect$$_printf_percent$$0000000C)
    .ARM.Collect$$_printf_percent$$00000013  0x080001bc   Section        6  _printf_c.o(.ARM.Collect$$_printf_percent$$00000013)
    .ARM.Collect$$_printf_percent$$00000014  0x080001c2   Section        6  _printf_s.o(.ARM.Collect$$_printf_percent$$00000014)
    .ARM.Collect$$_printf_percent$$00000017  0x080001c8   Section        4  _printf_percent_end.o(.ARM.Collect$$_printf_percent$$00000017)
    .ARM.Collect$$libinit$$00000000          0x080001cc   Section        2  libinit.o(.ARM.Collect$$libinit$$00000000)
    .ARM.Collect$$libinit$$00000002          0x080001ce   Section        0  libinit2.o(.ARM.Collect$$libinit$$00000002)
    .ARM.Collect$$libinit$$00000004          0x080001ce   Section        0  libinit2.o(.ARM.Collect$$libinit$$00000004)
    .ARM.Collect$$libinit$$0000000A          0x080001ce   Section        0  libinit2.o(.ARM.Collect$$libinit$$0000000A)
    .ARM.Collect$$libinit$$0000000C          0x080001ce   Section        0  libinit2.o(.ARM.Collect$$libinit$$0000000C)
    .ARM.Collect$$libinit$$0000000E          0x080001ce   Section        0  libinit2.o(.ARM.Collect$$libinit$$0000000E)
    .ARM.Collect$$libinit$$0000000F          0x080001ce   Section        6  libinit2.o(.ARM.Collect$$libinit$$0000000F)
    .ARM.Collect$$libinit$$00000011          0x080001d4   Section        0  libinit2.o(.ARM.Collect$$libinit$$00000011)
    .ARM.Collect$$libinit$$00000013          0x080001d4   Section        0  libinit2.o(.ARM.Collect$$libinit$$00000013)
    .ARM.Collect$$libinit$$00000015          0x080001d4   Section        0  libinit2.o(.ARM.Collect$$libinit$$00000015)
    .ARM.Collect$$libinit$$00000016          0x080001d4   Section       10  libinit2.o(.ARM.Collect$$libinit$$00000016)
    .ARM.Collect$$libinit$$00000017          0x080001de   Section        0  libinit2.o(.ARM.Collect$$libinit$$00000017)
    .ARM.Collect$$libinit$$00000019          0x080001de   Section        0  libinit2.o(.ARM.Collect$$libinit$$00000019)
    .ARM.Collect$$libinit$$0000001B          0x080001de   Section        0  libinit2.o(.ARM.Collect$$libinit$$0000001B)
    .ARM.Collect$$libinit$$0000001D          0x080001de   Section        0  libinit2.o(.ARM.Collect$$libinit$$0000001D)
    .ARM.Collect$$libinit$$0000001F          0x080001de   Section        0  libinit2.o(.ARM.Collect$$libinit$$0000001F)
    .ARM.Collect$$libinit$$00000021          0x080001de   Section        0  libinit2.o(.ARM.Collect$$libinit$$00000021)
    .ARM.Collect$$libinit$$00000023          0x080001de   Section        0  libinit2.o(.ARM.Collect$$libinit$$00000023)
    .ARM.Collect$$libinit$$00000025          0x080001de   Section        0  libinit2.o(.ARM.Collect$$libinit$$00000025)
    .ARM.Collect$$libinit$$0000002C          0x080001de   Section        0  libinit2.o(.ARM.Collect$$libinit$$0000002C)
    .ARM.Collect$$libinit$$0000002E          0x080001de   Section        0  libinit2.o(.ARM.Collect$$libinit$$0000002E)
    .ARM.Collect$$libinit$$00000030          0x080001de   Section        0  libinit2.o(.ARM.Collect$$libinit$$00000030)
    .ARM.Collect$$libinit$$00000032          0x080001de   Section        0  libinit2.o(.ARM.Collect$$libinit$$00000032)
    .ARM.Collect$$libinit$$00000033          0x080001de   Section        2  libinit2.o(.ARM.Collect$$libinit$$00000033)
    .ARM.Collect$$libshutdown$$00000000      0x080001e0   Section        2  libshutdown.o(.ARM.Collect$$libshutdown$$00000000)
    .ARM.Collect$$libshutdown$$00000002      0x080001e2   Section        0  libshutdown2.o(.ARM.Collect$$libshutdown$$00000002)
    .ARM.Collect$$libshutdown$$00000004      0x080001e2   Section        0  libshutdown2.o(.ARM.Collect$$libshutdown$$00000004)
    .ARM.Collect$$libshutdown$$00000007      0x080001e2   Section        0  libshutdown2.o(.ARM.Collect$$libshutdown$$00000007)
    .ARM.Collect$$libshutdown$$0000000A      0x080001e2   Section        0  libshutdown2.o(.ARM.Collect$$libshutdown$$0000000A)
    .ARM.Collect$$libshutdown$$0000000C      0x080001e2   Section        0  libshutdown2.o(.ARM.Collect$$libshutdown$$0000000C)
    .ARM.Collect$$libshutdown$$0000000F      0x080001e2   Section        0  libshutdown2.o(.ARM.Collect$$libshutdown$$0000000F)
    .ARM.Collect$$libshutdown$$00000010      0x080001e2   Section        2  libshutdown2.o(.ARM.Collect$$libshutdown$$00000010)
    .ARM.Collect$$rtentry$$00000000          0x080001e4   Section        0  __rtentry.o(.ARM.Collect$$rtentry$$00000000)
    .ARM.Collect$$rtentry$$00000002          0x080001e4   Section        0  __rtentry2.o(.ARM.Collect$$rtentry$$00000002)
    .ARM.Collect$$rtentry$$00000004          0x080001e4   Section        6  __rtentry4.o(.ARM.Collect$$rtentry$$00000004)
    .ARM.Collect$$rtentry$$00000009          0x080001ea   Section        0  __rtentry2.o(.ARM.Collect$$rtentry$$00000009)
    .ARM.Collect$$rtentry$$0000000A          0x080001ea   Section        4  __rtentry2.o(.ARM.Collect$$rtentry$$0000000A)
    .ARM.Collect$$rtentry$$0000000C          0x080001ee   Section        0  __rtentry2.o(.ARM.Collect$$rtentry$$0000000C)
    .ARM.Collect$$rtentry$$0000000D          0x080001ee   Section        8  __rtentry2.o(.ARM.Collect$$rtentry$$0000000D)
    .ARM.Collect$$rtexit$$00000000           0x080001f6   Section        2  rtexit.o(.ARM.Collect$$rtexit$$00000000)
    .ARM.Collect$$rtexit$$00000002           0x080001f8   Section        0  rtexit2.o(.ARM.Collect$$rtexit$$00000002)
    .ARM.Collect$$rtexit$$00000003           0x080001f8   Section        4  rtexit2.o(.ARM.Collect$$rtexit$$00000003)
    .ARM.Collect$$rtexit$$00000004           0x080001fc   Section        6  rtexit2.o(.ARM.Collect$$rtexit$$00000004)
    .emb_text                                0x08000204   Section      150  port.o(.emb_text)
    .text                                    0x0800029c   Section       64  startup_stm32f10x_hd.o(.text)
    .text                                    0x080002dc   Section        2  use_no_semi_2.o(.text)
    .text                                    0x080002e0   Section        0  noretval__2printf.o(.text)
    .text                                    0x080002f8   Section        0  noretval__2sprintf.o(.text)
    .text                                    0x08000320   Section        0  _printf_pad.o(.text)
    .text                                    0x0800036e   Section        0  _printf_str.o(.text)
    .text                                    0x080003c0   Section        0  _printf_dec.o(.text)
    .text                                    0x08000438   Section        0  _printf_hex_int.o(.text)
    .text                                    0x08000490   Section        0  __printf_flags_ss_wp.o(.text)
    .text                                    0x08000618   Section      138  rt_memcpy_v6.o(.text)
    .text                                    0x080006a2   Section        0  heapauxi.o(.text)
    .text                                    0x080006a8   Section        2  use_no_semi.o(.text)
    .text                                    0x080006aa   Section        0  _printf_intcommon.o(.text)
    .text                                    0x0800075c   Section        0  _printf_fp_dec.o(.text)
    _fp_digits                               0x0800075f   Thumb Code   432  _printf_fp_dec.o(.text)
    .text                                    0x08000b7c   Section        0  _printf_char_common.o(.text)
    _printf_input_char                       0x08000b7d   Thumb Code    10  _printf_char_common.o(.text)
    .text                                    0x08000bac   Section        0  _sputc.o(.text)
    .text                                    0x08000bb6   Section        0  _printf_char.o(.text)
    .text                                    0x08000be4   Section        0  _printf_char_file.o(.text)
    .text                                    0x08000c08   Section      100  rt_memcpy_w.o(.text)
    .text                                    0x08000c6c   Section        8  rt_locale_intlibspace.o(.text)
    .text                                    0x08000c74   Section      138  lludiv10.o(.text)
    .text                                    0x08000d00   Section        0  _printf_fp_infnan.o(.text)
    .text                                    0x08000d80   Section        0  bigflt0.o(.text)
    .text                                    0x08000e64   Section        0  ferror.o(.text)
    .text                                    0x08000e6c   Section        8  libspace.o(.text)
    .text                                    0x08000e74   Section       74  sys_stackheap_outer.o(.text)
    .text                                    0x08000ebe   Section        0  exit.o(.text)
    .text                                    0x08000ed0   Section      128  strcmpv7m.o(.text)
    CL$$btod_d2e                             0x08000f50   Section       62  btod.o(CL$$btod_d2e)
    CL$$btod_d2e_denorm_low                  0x08000f8e   Section       70  btod.o(CL$$btod_d2e_denorm_low)
    CL$$btod_d2e_norm_op1                    0x08000fd4   Section       96  btod.o(CL$$btod_d2e_norm_op1)
    CL$$btod_div_common                      0x08001034   Section      824  btod.o(CL$$btod_div_common)
    CL$$btod_e2e                             0x0800136c   Section      220  btod.o(CL$$btod_e2e)
    CL$$btod_ediv                            0x08001448   Section       42  btod.o(CL$$btod_ediv)
    CL$$btod_emul                            0x08001472   Section       42  btod.o(CL$$btod_emul)
    CL$$btod_mult_common                     0x0800149c   Section      580  btod.o(CL$$btod_mult_common)
    i.ADC1_Init                              0x080016e0   Section        0  sensor_adc.o(i.ADC1_Init)
    i.ADC1_ReadAvg                           0x0800179c   Section        0  sensor_adc.o(i.ADC1_ReadAvg)
    i.ADC1_ReadChannel                       0x080017c4   Section        0  sensor_adc.o(i.ADC1_ReadChannel)
    i.ADC_Cmd                                0x080017f8   Section        0  stm32f10x_adc.o(i.ADC_Cmd)
    i.ADC_DeInit                             0x08001810   Section        0  stm32f10x_adc.o(i.ADC_DeInit)
    i.ADC_GetCalibrationStatus               0x0800186c   Section        0  stm32f10x_adc.o(i.ADC_GetCalibrationStatus)
    i.ADC_GetConversionValue                 0x08001880   Section        0  stm32f10x_adc.o(i.ADC_GetConversionValue)
    i.ADC_GetFlagStatus                      0x08001888   Section        0  stm32f10x_adc.o(i.ADC_GetFlagStatus)
    i.ADC_GetResetCalibrationStatus          0x0800189a   Section        0  stm32f10x_adc.o(i.ADC_GetResetCalibrationStatus)
    i.ADC_Init                               0x080018b0   Section        0  stm32f10x_adc.o(i.ADC_Init)
    i.ADC_RegularChannelConfig               0x08001900   Section        0  stm32f10x_adc.o(i.ADC_RegularChannelConfig)
    i.ADC_ResetCalibration                   0x080019b8   Section        0  stm32f10x_adc.o(i.ADC_ResetCalibration)
    i.ADC_SoftwareStartConvCmd               0x080019c2   Section        0  stm32f10x_adc.o(i.ADC_SoftwareStartConvCmd)
    i.ADC_StartCalibration                   0x080019d8   Section        0  stm32f10x_adc.o(i.ADC_StartCalibration)
    i.Buzzer_Set                             0x080019e4   Section        0  gpio_out.o(i.Buzzer_Set)
    i.CH451_Clear                            0x08001a04   Section        0  ch451.o(i.CH451_Clear)
    i.CH451_DisplayNum                       0x08001a1c   Section        0  ch451.o(i.CH451_DisplayNum)
    i.CH451_Init                             0x08001ab4   Section        0  ch451.o(i.CH451_Init)
    i.CH451_ReadKey                          0x08001b48   Section        0  ch451.o(i.CH451_ReadKey)
    i.CH451_SetDigit                         0x08001bb0   Section        0  ch451.o(i.CH451_SetDigit)
    i.CH451_WriteCmd                         0x08001bd8   Section        0  ch451.o(i.CH451_WriteCmd)
    i.DHT11_Init                             0x08001c40   Section        0  dht11.o(i.DHT11_Init)
    i.DHT11_PinIn                            0x08001c58   Section        0  dht11.o(i.DHT11_PinIn)
    DHT11_PinIn                              0x08001c59   Thumb Code    24  dht11.o(i.DHT11_PinIn)
    i.DHT11_PinOut                           0x08001c74   Section        0  dht11.o(i.DHT11_PinOut)
    DHT11_PinOut                             0x08001c75   Thumb Code    30  dht11.o(i.DHT11_PinOut)
    i.DHT11_Read                             0x08001c98   Section        0  dht11.o(i.DHT11_Read)
    i.DHT11_ReadByte                         0x08001d94   Section        0  dht11.o(i.DHT11_ReadByte)
    DHT11_ReadByte                           0x08001d95   Thumb Code    84  dht11.o(i.DHT11_ReadByte)
    i.DHT11_ReadPin                          0x08001de8   Section        0  dht11.o(i.DHT11_ReadPin)
    DHT11_ReadPin                            0x08001de9   Thumb Code    20  dht11.o(i.DHT11_ReadPin)
    i.DHT11_WritePin                         0x08001e00   Section        0  dht11.o(i.DHT11_WritePin)
    DHT11_WritePin                           0x08001e01   Thumb Code    26  dht11.o(i.DHT11_WritePin)
    i.DS18B20_Init                           0x08001e20   Section        0  ds18b20.o(i.DS18B20_Init)
    i.DS18B20_PinIn                          0x08001e38   Section        0  ds18b20.o(i.DS18B20_PinIn)
    DS18B20_PinIn                            0x08001e39   Thumb Code    26  ds18b20.o(i.DS18B20_PinIn)
    i.DS18B20_PinOut                         0x08001e58   Section        0  ds18b20.o(i.DS18B20_PinOut)
    DS18B20_PinOut                           0x08001e59   Thumb Code    32  ds18b20.o(i.DS18B20_PinOut)
    i.DS18B20_ReadBit                        0x08001e7c   Section        0  ds18b20.o(i.DS18B20_ReadBit)
    DS18B20_ReadBit                          0x08001e7d   Thumb Code    50  ds18b20.o(i.DS18B20_ReadBit)
    i.DS18B20_ReadByte                       0x08001eae   Section        0  ds18b20.o(i.DS18B20_ReadByte)
    i.DS18B20_ReadPin                        0x08001ed4   Section        0  ds18b20.o(i.DS18B20_ReadPin)
    DS18B20_ReadPin                          0x08001ed5   Thumb Code    22  ds18b20.o(i.DS18B20_ReadPin)
    i.DS18B20_ReadTemp                       0x08001ef0   Section        0  ds18b20.o(i.DS18B20_ReadTemp)
    i.DS18B20_Reset                          0x08001f50   Section        0  ds18b20.o(i.DS18B20_Reset)
    i.DS18B20_StartConvert                   0x08001f96   Section        0  ds18b20.o(i.DS18B20_StartConvert)
    i.DS18B20_WriteBit                       0x08001fac   Section        0  ds18b20.o(i.DS18B20_WriteBit)
    DS18B20_WriteBit                         0x08001fad   Thumb Code    56  ds18b20.o(i.DS18B20_WriteBit)
    i.DS18B20_WriteByte                      0x08001fe4   Section        0  ds18b20.o(i.DS18B20_WriteByte)
    i.DS18B20_WritePin                       0x08002004   Section        0  ds18b20.o(i.DS18B20_WritePin)
    DS18B20_WritePin                         0x08002005   Thumb Code    30  ds18b20.o(i.DS18B20_WritePin)
    i.ENC_GetCount                           0x08002028   Section        0  encoder.o(i.ENC_GetCount)
    i.ENC_Init                               0x08002034   Section        0  encoder.o(i.ENC_Init)
    i.ENC_Reset                              0x080020e4   Section        0  encoder.o(i.ENC_Reset)
    i.ENC_Z_IsPressed                        0x080020f0   Section        0  encoder.o(i.ENC_Z_IsPressed)
    i.EXTI0_IRQHandler                       0x0800210c   Section        0  infrared.o(i.EXTI0_IRQHandler)
    i.EXTI2_IRQHandler                       0x08002150   Section        0  gpio_in.o(i.EXTI2_IRQHandler)
    i.EXTI3_IRQHandler                       0x0800216c   Section        0  gpio_in.o(i.EXTI3_IRQHandler)
    i.EXTI9_5_IRQHandler                     0x08002188   Section        0  encoder.o(i.EXTI9_5_IRQHandler)
    i.EXTI_ClearITPendingBit                 0x080021c4   Section        0  stm32f10x_exti.o(i.EXTI_ClearITPendingBit)
    i.EXTI_GetITStatus                       0x080021d0   Section        0  stm32f10x_exti.o(i.EXTI_GetITStatus)
    i.EXTI_Init                              0x080021f8   Section        0  stm32f10x_exti.o(i.EXTI_Init)
    i.Exp10_Relay                            0x0800228c   Section        0  main.o(i.Exp10_Relay)
    i.Exp11_DHT11                            0x08002580   Section        0  main.o(i.Exp11_DHT11)
    i.Exp12_Thermistor                       0x080027a4   Section        0  main.o(i.Exp12_Thermistor)
    i.Exp13_DS18B20                          0x0800297c   Section        0  main.o(i.Exp13_DS18B20)
    i.Exp14_DA                               0x08002bbc   Section        0  main.o(i.Exp14_DA)
    i.Exp15_RS232                            0x08002e28   Section        0  main.o(i.Exp15_RS232)
    i.Exp16_RS485                            0x08003078   Section        0  main.o(i.Exp16_RS485)
    i.Exp17_Infrared                         0x08003274   Section        0  main.o(i.Exp17_Infrared)
    i.Exp18_Encoder                          0x080034fc   Section        0  main.o(i.Exp18_Encoder)
    i.Exp18_StepperMotor                     0x080036b0   Section        0  main.o(i.Exp18_StepperMotor)
    i.Exp19_DCMotorPWM                       0x08003920   Section        0  main.o(i.Exp19_DCMotorPWM)
    i.Exp1_LED_Flowing                       0x08003a64   Section        0  main.o(i.Exp1_LED_Flowing)
    i.Exp20_Servo                            0x08003b7c   Section        0  main.o(i.Exp20_Servo)
    i.Exp2_KeyPolling                        0x08003d10   Section        0  main.o(i.Exp2_KeyPolling)
    i.Exp3_LightSensor                       0x08003eac   Section        0  main.o(i.Exp3_LightSensor)
    i.Exp4_USART1_Echo                       0x08004080   Section        0  main.o(i.Exp4_USART1_Echo)
    i.Exp5_TrafficLight                      0x080041cc   Section        0  main.o(i.Exp5_TrafficLight)
    i.Exp6_LCD12864                          0x080043f0   Section        0  main.o(i.Exp6_LCD12864)
    i.Exp7_CH451                             0x08004698   Section        0  main.o(i.Exp7_CH451)
    i.Exp8_IndependentKeys                   0x080048ac   Section        0  main.o(i.Exp8_IndependentKeys)
    i.Exp9_DIPSwitch                         0x08004b0c   Section        0  main.o(i.Exp9_DIPSwitch)
    i.GPIO_EXTILineConfig                    0x08004c8c   Section        0  stm32f10x_gpio.o(i.GPIO_EXTILineConfig)
    i.GPIO_Init                              0x08004ccc   Section        0  stm32f10x_gpio.o(i.GPIO_Init)
    i.GPIO_PinRemapConfig                    0x08004de4   Section        0  stm32f10x_gpio.o(i.GPIO_PinRemapConfig)
    i.GPIO_ReadInputDataBit                  0x08004e74   Section        0  stm32f10x_gpio.o(i.GPIO_ReadInputDataBit)
    i.GPIO_ResetBits                         0x08004e86   Section        0  stm32f10x_gpio.o(i.GPIO_ResetBits)
    i.GPIO_SetBits                           0x08004e8a   Section        0  stm32f10x_gpio.o(i.GPIO_SetBits)
    i.IKEY_EXTI_DeInit                       0x08004e8e   Section        0  gpio_in.o(i.IKEY_EXTI_DeInit)
    i.IKEY_EXTI_Init                         0x08004ee4   Section        0  gpio_in.o(i.IKEY_EXTI_Init)
    i.IKEY_Init                              0x08004fa4   Section        0  gpio_in.o(i.IKEY_Init)
    i.IKEY_Read                              0x08004fe8   Section        0  gpio_in.o(i.IKEY_Read)
    i.IR_Decode                              0x08005034   Section        0  infrared.o(i.IR_Decode)
    i.IR_EXTI_Disable                        0x08005122   Section        0  infrared.o(i.IR_EXTI_Disable)
    i.IR_EXTI_Enable                         0x08005148   Section        0  infrared.o(i.IR_EXTI_Enable)
    i.IR_InRange                             0x08005178   Section        0  infrared.o(i.IR_InRange)
    IR_InRange                               0x08005179   Thumb Code    28  infrared.o(i.IR_InRange)
    i.IR_Init                                0x08005194   Section        0  infrared.o(i.IR_Init)
    i.IR_PulseWidth                          0x08005204   Section        0  infrared.o(i.IR_PulseWidth)
    IR_PulseWidth                            0x08005205   Thumb Code    74  infrared.o(i.IR_PulseWidth)
    i.IR_ReadPin                             0x0800525c   Section        0  infrared.o(i.IR_ReadPin)
    IR_ReadPin                               0x0800525d   Thumb Code    20  infrared.o(i.IR_ReadPin)
    i.LCD12864_Backlight                     0x08005274   Section        0  lcd12864.o(i.LCD12864_Backlight)
    i.LCD12864_Clear                         0x08005298   Section        0  lcd12864.o(i.LCD12864_Clear)
    i.LCD12864_Init                          0x080052a8   Section        0  lcd12864.o(i.LCD12864_Init)
    i.LCD12864_SendByte                      0x08005378   Section        0  lcd12864.o(i.LCD12864_SendByte)
    LCD12864_SendByte                        0x08005379   Thumb Code    70  lcd12864.o(i.LCD12864_SendByte)
    i.LCD12864_SetPos                        0x080053c8   Section        0  lcd12864.o(i.LCD12864_SetPos)
    i.LCD12864_WriteCmd                      0x080053ec   Section        0  lcd12864.o(i.LCD12864_WriteCmd)
    LCD12864_WriteCmd                        0x080053ed   Thumb Code    56  lcd12864.o(i.LCD12864_WriteCmd)
    i.LCD12864_WriteData                     0x08005428   Section        0  lcd12864.o(i.LCD12864_WriteData)
    LCD12864_WriteData                       0x08005429   Thumb Code    56  lcd12864.o(i.LCD12864_WriteData)
    i.LCD12864_WriteString                   0x08005464   Section        0  lcd12864.o(i.LCD12864_WriteString)
    i.LED_AllOff                             0x0800547c   Section        0  gpio_out.o(i.LED_AllOff)
    i.LED_Init                               0x08005490   Section        0  gpio_out.o(i.LED_Init)
    i.LED_Set                                0x080054c8   Section        0  gpio_out.o(i.LED_Set)
    i.Light_Percent                          0x080054fc   Section        0  sensor_adc.o(i.Light_Percent)
    i.Motor_Init                             0x0800551c   Section        0  timer_pwm.o(i.Motor_Init)
    i.Motor_SetDir                           0x080055c0   Section        0  timer_pwm.o(i.Motor_SetDir)
    i.Motor_SetSpeed                         0x080055f8   Section        0  timer_pwm.o(i.Motor_SetSpeed)
    i.Motor_Stop                             0x08005628   Section        0  timer_pwm.o(i.Motor_Stop)
    i.NVIC_Init                              0x08005640   Section        0  misc.o(i.NVIC_Init)
    i.NVIC_PriorityGroupConfig               0x080056b0   Section        0  misc.o(i.NVIC_PriorityGroupConfig)
    i.RCC_APB1PeriphClockCmd                 0x080056c4   Section        0  stm32f10x_rcc.o(i.RCC_APB1PeriphClockCmd)
    i.RCC_APB2PeriphClockCmd                 0x080056e4   Section        0  stm32f10x_rcc.o(i.RCC_APB2PeriphClockCmd)
    i.RCC_APB2PeriphResetCmd                 0x08005704   Section        0  stm32f10x_rcc.o(i.RCC_APB2PeriphResetCmd)
    i.RCC_GetClocksFreq                      0x08005724   Section        0  stm32f10x_rcc.o(i.RCC_GetClocksFreq)
    i.RS232_Init                             0x080057f8   Section        0  rs232.o(i.RS232_Init)
    i.RS232_ReadByte                         0x080058c8   Section        0  rs232.o(i.RS232_ReadByte)
    i.RS232_RxAvailable                      0x0800590c   Section        0  rs232.o(i.RS232_RxAvailable)
    i.RS232_SendByte                         0x08005918   Section        0  rs232.o(i.RS232_SendByte)
    i.RS232_SendString                       0x08005938   Section        0  rs232.o(i.RS232_SendString)
    i.RS485_Init                             0x08005950   Section        0  rs485.o(i.RS485_Init)
    i.RS485_ReadByte                         0x08005a40   Section        0  rs485.o(i.RS485_ReadByte)
    i.RS485_RxAvailable                      0x08005a84   Section        0  rs485.o(i.RS485_RxAvailable)
    i.RS485_SendByte                         0x08005a90   Section        0  rs485.o(i.RS485_SendByte)
    i.RS485_SendString                       0x08005adc   Section        0  rs485.o(i.RS485_SendString)
    i.RS485_SetRX                            0x08005af4   Section        0  rs485.o(i.RS485_SetRX)
    i.RS485_SetTX                            0x08005b08   Section        0  rs485.o(i.RS485_SetTX)
    i.Relay_Init                             0x08005b1c   Section        0  relay.o(i.Relay_Init)
    i.Relay_Set                              0x08005b5c   Section        0  relay.o(i.Relay_Set)
    i.RunExperiment                          0x08005b98   Section        0  freertos_tasks.o(i.RunExperiment)
    RunExperiment                            0x08005b99   Thumb Code   166  freertos_tasks.o(i.RunExperiment)
    i.SW_Init                                0x08005c40   Section        0  gpio_in.o(i.SW_Init)
    i.SW_ReadAll                             0x08005cfc   Section        0  gpio_in.o(i.SW_ReadAll)
    i.SetSysClock                            0x08005d8c   Section        0  system_stm32f10x.o(i.SetSysClock)
    SetSysClock                              0x08005d8d   Thumb Code     8  system_stm32f10x.o(i.SetSysClock)
    i.SetSysClockTo72                        0x08005d94   Section        0  system_stm32f10x.o(i.SetSysClockTo72)
    SetSysClockTo72                          0x08005d95   Thumb Code   214  system_stm32f10x.o(i.SetSysClockTo72)
    i.Stepper_Init                           0x08005e74   Section        0  stepper.o(i.Stepper_Init)
    i.Stepper_Output                         0x08005eb8   Section        0  stepper.o(i.Stepper_Output)
    Stepper_Output                           0x08005eb9   Thumb Code   118  stepper.o(i.Stepper_Output)
    i.Stepper_StepCCW                        0x08005f34   Section        0  stepper.o(i.Stepper_StepCCW)
    i.Stepper_StepCW                         0x08005fec   Section        0  stepper.o(i.Stepper_StepCW)
    i.Stepper_Stop                           0x080060a0   Section        0  stepper.o(i.Stepper_Stop)
    i.SystemInit                             0x080060b4   Section        0  system_stm32f10x.o(i.SystemInit)
    i.TIM4_Servo_Init                        0x08006114   Section        0  timer_pwm.o(i.TIM4_Servo_Init)
    i.TIM4_Servo_SetAngle                    0x080061ac   Section        0  timer_pwm.o(i.TIM4_Servo_SetAngle)
    i.TIM_Cmd                                0x080061d8   Section        0  stm32f10x_tim.o(i.TIM_Cmd)
    i.TIM_OC1Init                            0x080061f0   Section        0  stm32f10x_tim.o(i.TIM_OC1Init)
    i.TIM_OC2Init                            0x08006288   Section        0  stm32f10x_tim.o(i.TIM_OC2Init)
    i.TIM_OC3Init                            0x0800632c   Section        0  stm32f10x_tim.o(i.TIM_OC3Init)
    i.TIM_SetCompare1                        0x080063cc   Section        0  stm32f10x_tim.o(i.TIM_SetCompare1)
    i.TIM_SetCompare2                        0x080063d0   Section        0  stm32f10x_tim.o(i.TIM_SetCompare2)
    i.TIM_SetCompare3                        0x080063d4   Section        0  stm32f10x_tim.o(i.TIM_SetCompare3)
    i.TIM_SetCounter                         0x080063d8   Section        0  stm32f10x_tim.o(i.TIM_SetCounter)
    i.TIM_TimeBaseInit                       0x080063dc   Section        0  stm32f10x_tim.o(i.TIM_TimeBaseInit)
    i.TLC5615_Init                           0x08006480   Section        0  tlc5615.o(i.TLC5615_Init)
    i.TLC5615_Send                           0x080064c8   Section        0  tlc5615.o(i.TLC5615_Send)
    TLC5615_Send                             0x080064c9   Thumb Code   112  tlc5615.o(i.TLC5615_Send)
    i.TLC5615_SetValue                       0x0800653c   Section        0  tlc5615.o(i.TLC5615_SetValue)
    i.TrafficLight_Init                      0x08006558   Section        0  gpio_out.o(i.TrafficLight_Init)
    i.TrafficLight_Set                       0x08006594   Section        0  gpio_out.o(i.TrafficLight_Set)
    i.UART4_IRQHandler                       0x08006600   Section        0  rs485.o(i.UART4_IRQHandler)
    i.USART1_IRQHandler                      0x0800665c   Section        0  usart_debug.o(i.USART1_IRQHandler)
    i.USART3_IRQHandler                      0x080066b8   Section        0  rs232.o(i.USART3_IRQHandler)
    i.USART_Cmd                              0x08006714   Section        0  stm32f10x_usart.o(i.USART_Cmd)
    i.USART_GetFlagStatus                    0x0800672c   Section        0  stm32f10x_usart.o(i.USART_GetFlagStatus)
    i.USART_GetITStatus                      0x08006746   Section        0  stm32f10x_usart.o(i.USART_GetITStatus)
    i.USART_ITConfig                         0x0800679a   Section        0  stm32f10x_usart.o(i.USART_ITConfig)
    i.USART_Init                             0x080067e4   Section        0  stm32f10x_usart.o(i.USART_Init)
    i.USART_RX_Available                     0x080068bc   Section        0  usart_debug.o(i.USART_RX_Available)
    i.USART_RX_DeInit                        0x080068c8   Section        0  usart_debug.o(i.USART_RX_DeInit)
    i.USART_RX_Flush                         0x080068dc   Section        0  usart_debug.o(i.USART_RX_Flush)
    i.USART_RX_Init                          0x080068f8   Section        0  usart_debug.o(i.USART_RX_Init)
    i.USART_RX_Read                          0x08006928   Section        0  usart_debug.o(i.USART_RX_Read)
    i.USART_ReceiveData                      0x0800696c   Section        0  stm32f10x_usart.o(i.USART_ReceiveData)
    i.USART_SendData                         0x08006976   Section        0  stm32f10x_usart.o(i.USART_SendData)
    i.WKUP_Init                              0x08006980   Section        0  main.o(i.WKUP_Init)
    i.WKUP_IsPressed                         0x080069a4   Section        0  main.o(i.WKUP_IsPressed)
    i.__ARM_fpclassify                       0x080069bc   Section        0  fpclassify.o(i.__ARM_fpclassify)
    i._is_digit                              0x080069e4   Section        0  __printf_wp.o(i._is_digit)
    i._sys_exit                              0x080069f2   Section        0  usart.o(i._sys_exit)
    i.delay_ms                               0x080069f4   Section        0  delay.o(i.delay_ms)
    i.delay_us                               0x08006a3c   Section        0  delay_us.o(i.delay_us)
    i.delay_us_init                          0x08006a6c   Section        0  delay_us.o(i.delay_us_init)
    i.fputc                                  0x08006a94   Section        0  usart.o(i.fputc)
    i.freertos_init                          0x08006ab0   Section        0  freertos_tasks.o(i.freertos_init)
    i.main                                   0x08006b14   Section        0  main.o(i.main)
    i.prvAddCurrentTaskToDelayedList         0x08006c7c   Section        0  tasks.o(i.prvAddCurrentTaskToDelayedList)
    prvAddCurrentTaskToDelayedList           0x08006c7d   Thumb Code   124  tasks.o(i.prvAddCurrentTaskToDelayedList)
    i.prvAddNewTaskToReadyList               0x08006d14   Section        0  tasks.o(i.prvAddNewTaskToReadyList)
    prvAddNewTaskToReadyList                 0x08006d15   Thumb Code   150  tasks.o(i.prvAddNewTaskToReadyList)
    i.prvCheckTasksWaitingTermination        0x08006dc8   Section        0  tasks.o(i.prvCheckTasksWaitingTermination)
    prvCheckTasksWaitingTermination          0x08006dc9   Thumb Code    86  tasks.o(i.prvCheckTasksWaitingTermination)
    i.prvCopyDataFromQueue                   0x08006e2c   Section        0  queue.o(i.prvCopyDataFromQueue)
    prvCopyDataFromQueue                     0x08006e2d   Thumb Code    42  queue.o(i.prvCopyDataFromQueue)
    i.prvCopyDataToQueue                     0x08006e56   Section        0  queue.o(i.prvCopyDataToQueue)
    prvCopyDataToQueue                       0x08006e57   Thumb Code   106  queue.o(i.prvCopyDataToQueue)
    i.prvDeleteTCB                           0x08006ec0   Section        0  tasks.o(i.prvDeleteTCB)
    prvDeleteTCB                             0x08006ec1   Thumb Code    18  tasks.o(i.prvDeleteTCB)
    i.prvHeapInit                            0x08006ed4   Section        0  heap_2.o(i.prvHeapInit)
    prvHeapInit                              0x08006ed5   Thumb Code    42  heap_2.o(i.prvHeapInit)
    i.prvIdleTask                            0x08006f0c   Section        0  tasks.o(i.prvIdleTask)
    prvIdleTask                              0x08006f0d   Thumb Code    32  tasks.o(i.prvIdleTask)
    i.prvInitialiseNewQueue                  0x08006f34   Section        0  queue.o(i.prvInitialiseNewQueue)
    prvInitialiseNewQueue                    0x08006f35   Thumb Code    38  queue.o(i.prvInitialiseNewQueue)
    i.prvInitialiseNewTask                   0x08006f5a   Section        0  tasks.o(i.prvInitialiseNewTask)
    prvInitialiseNewTask                     0x08006f5b   Thumb Code   128  tasks.o(i.prvInitialiseNewTask)
    i.prvInitialiseTaskLists                 0x08006fdc   Section        0  tasks.o(i.prvInitialiseTaskLists)
    prvInitialiseTaskLists                   0x08006fdd   Thumb Code    70  tasks.o(i.prvInitialiseTaskLists)
    i.prvIsQueueEmpty                        0x08007044   Section        0  queue.o(i.prvIsQueueEmpty)
    prvIsQueueEmpty                          0x08007045   Thumb Code    26  queue.o(i.prvIsQueueEmpty)
    i.prvIsQueueFull                         0x0800705e   Section        0  queue.o(i.prvIsQueueFull)
    prvIsQueueFull                           0x0800705f   Thumb Code    30  queue.o(i.prvIsQueueFull)
    i.prvResetNextTaskUnblockTime            0x0800707c   Section        0  tasks.o(i.prvResetNextTaskUnblockTime)
    prvResetNextTaskUnblockTime              0x0800707d   Thumb Code    42  tasks.o(i.prvResetNextTaskUnblockTime)
    i.prvTaskExitError                       0x080070b0   Section        0  port.o(i.prvTaskExitError)
    prvTaskExitError                         0x080070b1   Thumb Code    22  port.o(i.prvTaskExitError)
    i.prvUnlockQueue                         0x080070c6   Section        0  queue.o(i.prvUnlockQueue)
    prvUnlockQueue                           0x080070c7   Thumb Code   126  queue.o(i.prvUnlockQueue)
    i.pvPortMalloc                           0x08007144   Section        0  heap_2.o(i.pvPortMalloc)
    i.pxPortInitialiseStack                  0x080071fc   Section        0  port.o(i.pxPortInitialiseStack)
    i.usart_init                             0x08007220   Section        0  usart.o(i.usart_init)
    i.uxListRemove                           0x080072a0   Section        0  list.o(i.uxListRemove)
    i.vControlTask                           0x080072c8   Section        0  freertos_tasks.o(i.vControlTask)
    i.vExperimentTask                        0x08007338   Section        0  freertos_tasks.o(i.vExperimentTask)
    i.vListInitialise                        0x08007394   Section        0  list.o(i.vListInitialise)
    i.vListInitialiseItem                    0x080073ae   Section        0  list.o(i.vListInitialiseItem)
    i.vListInsert                            0x080073b4   Section        0  list.o(i.vListInsert)
    i.vListInsertEnd                         0x080073e8   Section        0  list.o(i.vListInsertEnd)
    i.vPortEnterCritical                     0x08007400   Section        0  port.o(i.vPortEnterCritical)
    i.vPortExitCritical                      0x08007424   Section        0  port.o(i.vPortExitCritical)
    i.vPortFree                              0x08007444   Section        0  heap_2.o(i.vPortFree)
    i.vPortSetupTimerInterrupt               0x08007484   Section        0  port.o(i.vPortSetupTimerInterrupt)
    i.vTaskDelay                             0x08007498   Section        0  tasks.o(i.vTaskDelay)
    i.vTaskMissedYield                       0x080074cc   Section        0  tasks.o(i.vTaskMissedYield)
    i.vTaskPlaceOnEventList                  0x080074d8   Section        0  tasks.o(i.vTaskPlaceOnEventList)
    i.vTaskSetTimeOutState                   0x080074f8   Section        0  tasks.o(i.vTaskSetTimeOutState)
    i.vTaskStartScheduler                    0x08007510   Section        0  tasks.o(i.vTaskStartScheduler)
    i.vTaskSuspendAll                        0x08007574   Section        0  tasks.o(i.vTaskSuspendAll)
    i.vTaskSwitchContext                     0x08007584   Section        0  tasks.o(i.vTaskSwitchContext)
    i.xPortStartScheduler                    0x080075e4   Section        0  port.o(i.xPortStartScheduler)
    i.xPortSysTickHandler                    0x08007618   Section        0  port.o(i.xPortSysTickHandler)
    i.xQueueGenericCreate                    0x0800764c   Section        0  queue.o(i.xQueueGenericCreate)
    i.xQueueGenericReceive                   0x08007684   Section        0  queue.o(i.xQueueGenericReceive)
    i.xQueueGenericReset                     0x080077c0   Section        0  queue.o(i.xQueueGenericReset)
    i.xQueueGenericSend                      0x08007840   Section        0  queue.o(i.xQueueGenericSend)
    i.xTaskCheckForTimeOut                   0x08007958   Section        0  tasks.o(i.xTaskCheckForTimeOut)
    i.xTaskCreate                            0x080079b4   Section        0  tasks.o(i.xTaskCreate)
    i.xTaskIncrementTick                     0x08007a14   Section        0  tasks.o(i.xTaskIncrementTick)
    i.xTaskRemoveFromEventList               0x08007b30   Section        0  tasks.o(i.xTaskRemoveFromEventList)
    i.xTaskResumeAll                         0x08007bb0   Section        0  tasks.o(i.xTaskResumeAll)
    locale$$code                             0x08007c98   Section       44  lc_numeric_c.o(locale$$code)
    x$fpl$dretinf                            0x08007cc4   Section       12  dretinf.o(x$fpl$dretinf)
    x$fpl$f2d                                0x08007cd0   Section       86  f2d.o(x$fpl$f2d)
    x$fpl$fdiv                               0x08007d28   Section      388  fdiv.o(x$fpl$fdiv)
    _fdiv1                                   0x08007d29   Thumb Code     0  fdiv.o(x$fpl$fdiv)
    x$fpl$ffltu                              0x08007eac   Section       38  fflt_clz.o(x$fpl$ffltu)
    x$fpl$fmul                               0x08007ed4   Section      258  fmul.o(x$fpl$fmul)
    x$fpl$fnaninf                            0x08007fd6   Section      140  fnaninf.o(x$fpl$fnaninf)
    x$fpl$fretinf                            0x08008062   Section       10  fretinf.o(x$fpl$fretinf)
    x$fpl$printf1                            0x0800806c   Section        4  printf1.o(x$fpl$printf1)
    .constdata                               0x08008070   Section       16  gpio_out.o(.constdata)
    x$fpl$usenofp                            0x08008070   Section        0  usenofp.o(x$fpl$usenofp)
    led_pin                                  0x08008070   Data          16  gpio_out.o(.constdata)
    .constdata                               0x08008080   Section        8  stepper.o(.constdata)
    step_table                               0x08008080   Data           8  stepper.o(.constdata)
    .constdata                               0x08008088   Section        4  lcd12864.o(.constdata)
    row_base                                 0x08008088   Data           4  lcd12864.o(.constdata)
    .constdata                               0x0800808c   Section       40  _printf_hex_int.o(.constdata)
    uc_hextab                                0x0800808c   Data          20  _printf_hex_int.o(.constdata)
    lc_hextab                                0x080080a0   Data          20  _printf_hex_int.o(.constdata)
    .constdata                               0x080080b4   Section       17  __printf_flags_ss_wp.o(.constdata)
    maptable                                 0x080080b4   Data          17  __printf_flags_ss_wp.o(.constdata)
    .constdata                               0x080080c8   Section      148  bigflt0.o(.constdata)
    tenpwrs_x                                0x080080c8   Data          60  bigflt0.o(.constdata)
    tenpwrs_i                                0x08008104   Data          64  bigflt0.o(.constdata)
    locale$$data                             0x0800817c   Section       28  lc_numeric_c.o(locale$$data)
    __lcnum_c_name                           0x08008180   Data           2  lc_numeric_c.o(locale$$data)
    __lcnum_c_start                          0x08008188   Data           0  lc_numeric_c.o(locale$$data)
    __lcnum_c_point                          0x08008194   Data           0  lc_numeric_c.o(locale$$data)
    __lcnum_c_thousands                      0x08008196   Data           0  lc_numeric_c.o(locale$$data)
    __lcnum_c_grouping                       0x08008197   Data           0  lc_numeric_c.o(locale$$data)
    __lcnum_c_end                            0x08008198   Data           0  lc_numeric_c.o(locale$$data)
    .data                                    0x20000000   Section       16  freertos_tasks.o(.data)
    .data                                    0x20000010   Section        4  usart.o(.data)
    .data                                    0x20000014   Section        3  usart_debug.o(.data)
    rx_head                                  0x20000014   Data           1  usart_debug.o(.data)
    rx_tail                                  0x20000015   Data           1  usart_debug.o(.data)
    rx_count                                 0x20000016   Data           1  usart_debug.o(.data)
    .data                                    0x20000017   Section        4  gpio_in.o(.data)
    .data                                    0x2000001b   Section        1  infrared.o(.data)
    .data                                    0x2000001c   Section        3  rs232.o(.data)
    rx_head                                  0x2000001c   Data           1  rs232.o(.data)
    rx_tail                                  0x2000001d   Data           1  rs232.o(.data)
    rx_count                                 0x2000001e   Data           1  rs232.o(.data)
    .data                                    0x2000001f   Section        3  rs485.o(.data)
    rx_head                                  0x2000001f   Data           1  rs485.o(.data)
    rx_tail                                  0x20000020   Data           1  rs485.o(.data)
    rx_count                                 0x20000021   Data           1  rs485.o(.data)
    .data                                    0x20000024   Section        4  encoder.o(.data)
    .data                                    0x20000028   Section        2  timer_pwm.o(.data)
    motor_speed_ccr                          0x20000028   Data           2  timer_pwm.o(.data)
    .data                                    0x2000002c   Section       24  heap_2.o(.data)
    xStart                                   0x2000002c   Data           8  heap_2.o(.data)
    xEnd                                     0x20000034   Data           8  heap_2.o(.data)
    xFreeBytesRemaining                      0x2000003c   Data           4  heap_2.o(.data)
    xHeapHasBeenInitialised                  0x20000040   Data           4  heap_2.o(.data)
    .data                                    0x20000044   Section        4  port.o(.data)
    uxCriticalNesting                        0x20000044   Data           4  port.o(.data)
    .data                                    0x20000048   Section       60  tasks.o(.data)
    pxDelayedTaskList                        0x2000004c   Data           4  tasks.o(.data)
    pxOverflowDelayedTaskList                0x20000050   Data           4  tasks.o(.data)
    uxDeletedTasksWaitingCleanUp             0x20000054   Data           4  tasks.o(.data)
    uxCurrentNumberOfTasks                   0x20000058   Data           4  tasks.o(.data)
    xTickCount                               0x2000005c   Data           4  tasks.o(.data)
    uxTopReadyPriority                       0x20000060   Data           4  tasks.o(.data)
    xSchedulerRunning                        0x20000064   Data           4  tasks.o(.data)
    uxPendedTicks                            0x20000068   Data           4  tasks.o(.data)
    xYieldPending                            0x2000006c   Data           4  tasks.o(.data)
    xNumOfOverflows                          0x20000070   Data           4  tasks.o(.data)
    uxTaskNumber                             0x20000074   Data           4  tasks.o(.data)
    xNextTaskUnblockTime                     0x20000078   Data           4  tasks.o(.data)
    xIdleTaskHandle                          0x2000007c   Data           4  tasks.o(.data)
    uxSchedulerSuspended                     0x20000080   Data           4  tasks.o(.data)
    .data                                    0x20000084   Section       20  stm32f10x_rcc.o(.data)
    APBAHBPrescTable                         0x20000084   Data          16  stm32f10x_rcc.o(.data)
    ADCPrescTable                            0x20000094   Data           4  stm32f10x_rcc.o(.data)
    .data                                    0x20000098   Section       20  system_stm32f10x.o(.data)
    .bss                                     0x200000ac   Section      256  usart_debug.o(.bss)
    rx_buf                                   0x200000ac   Data         256  usart_debug.o(.bss)
    .bss                                     0x200001ac   Section      256  rs232.o(.bss)
    rx_buf                                   0x200001ac   Data         256  rs232.o(.bss)
    .bss                                     0x200002ac   Section      256  rs485.o(.bss)
    rx_buf                                   0x200002ac   Data         256  rs485.o(.bss)
    .bss                                     0x200003ac   Section    17408  heap_2.o(.bss)
    ucHeap                                   0x200003ac   Data       17408  heap_2.o(.bss)
    .bss                                     0x200047ac   Section      200  tasks.o(.bss)
    pxReadyTasksLists                        0x200047ac   Data         100  tasks.o(.bss)
    xDelayedTaskList1                        0x20004810   Data          20  tasks.o(.bss)
    xDelayedTaskList2                        0x20004824   Data          20  tasks.o(.bss)
    xPendingReadyList                        0x20004838   Data          20  tasks.o(.bss)
    xTasksWaitingTermination                 0x2000484c   Data          20  tasks.o(.bss)
    xSuspendedTaskList                       0x20004860   Data          20  tasks.o(.bss)
    .bss                                     0x20004874   Section       96  libspace.o(.bss)
    HEAP                                     0x200048d8   Section      512  startup_stm32f10x_hd.o(HEAP)
    Heap_Mem                                 0x200048d8   Data         512  startup_stm32f10x_hd.o(HEAP)
    STACK                                    0x20004ad8   Section     1024  startup_stm32f10x_hd.o(STACK)
    Stack_Mem                                0x20004ad8   Data        1024  startup_stm32f10x_hd.o(STACK)
    __initial_sp                             0x20004ed8   Data           0  startup_stm32f10x_hd.o(STACK)

    Global Symbols

    Symbol Name                              Value     Ov Type        Size  Object(Section)

    BuildAttributes$$THM_ISAv4$P$D$K$B$S$PE$A:L22UL41UL21$X:L11$S22US41US21$IEEE1$IW$USESV6$~STKCKD$USESV7$~SHL$OTIME$ROPI$IEEEJ$EBA8$UX$STANDARDLIB$REQ8$PRES8$EABIv2 0x00000000   Number         0  anon$$obj.o ABSOLUTE
    __ARM_use_no_argv                        0x00000000   Number         0  main.o ABSOLUTE
    _printf_flags                            0x00000000   Number         0  printf_stubs.o ABSOLUTE
    _printf_return_value                     0x00000000   Number         0  printf_stubs.o ABSOLUTE
    _printf_sizespec                         0x00000000   Number         0  printf_stubs.o ABSOLUTE
    _printf_widthprec                        0x00000000   Number         0  printf_stubs.o ABSOLUTE
    __ARM_exceptions_init                     - Undefined Weak Reference
    __alloca_initialize                       - Undefined Weak Reference
    __arm_preinit_                            - Undefined Weak Reference
    __cpp_initialize__aeabi_                  - Undefined Weak Reference
    __cxa_finalize                            - Undefined Weak Reference
    __sigvec_lookup                           - Undefined Weak Reference
    _atexit_init                              - Undefined Weak Reference
    _call_atexit_fns                          - Undefined Weak Reference
    _clock_init                               - Undefined Weak Reference
    _fp_trap_init                             - Undefined Weak Reference
    _fp_trap_shutdown                         - Undefined Weak Reference
    _get_lc_collate                           - Undefined Weak Reference
    _get_lc_ctype                             - Undefined Weak Reference
    _get_lc_monetary                          - Undefined Weak Reference
    _get_lc_time                              - Undefined Weak Reference
    _getenv_init                              - Undefined Weak Reference
    _handle_redirection                       - Undefined Weak Reference
    _init_alloc                               - Undefined Weak Reference
    _init_user_alloc                          - Undefined Weak Reference
    _initio                                   - Undefined Weak Reference
    _mutex_acquire                            - Undefined Weak Reference
    _mutex_release                            - Undefined Weak Reference
    _printf_mbtowc                            - Undefined Weak Reference
    _printf_truncate_signed                   - Undefined Weak Reference
    _printf_truncate_unsigned                 - Undefined Weak Reference
    _rand_init                                - Undefined Weak Reference
    _signal_finish                            - Undefined Weak Reference
    _signal_init                              - Undefined Weak Reference
    _terminate_alloc                          - Undefined Weak Reference
    _terminate_user_alloc                     - Undefined Weak Reference
    _terminateio                              - Undefined Weak Reference
    __Vectors_Size                           0x00000130   Number         0  startup_stm32f10x_hd.o ABSOLUTE
    __Vectors                                0x08000000   Data           4  startup_stm32f10x_hd.o(RESET)
    __Vectors_End                            0x08000130   Data           0  startup_stm32f10x_hd.o(RESET)
    __main                                   0x08000131   Thumb Code     8  __main.o(!!!main)
    __scatterload                            0x08000139   Thumb Code     0  __scatter.o(!!!scatter)
    __scatterload_rt2                        0x08000139   Thumb Code    44  __scatter.o(!!!scatter)
    __scatterload_rt2_thumb_only             0x08000139   Thumb Code     0  __scatter.o(!!!scatter)
    __scatterload_null                       0x08000147   Thumb Code     0  __scatter.o(!!!scatter)
    __scatterload_copy                       0x0800016d   Thumb Code    26  __scatter_copy.o(!!handler_copy)
    __scatterload_zeroinit                   0x08000189   Thumb Code    28  __scatter_zi.o(!!handler_zi)
    _printf_f                                0x080001a5   Thumb Code     0  _printf_f.o(.ARM.Collect$$_printf_percent$$00000003)
    _printf_percent                          0x080001a5   Thumb Code     0  _printf_percent.o(.ARM.Collect$$_printf_percent$$00000000)
    _printf_d                                0x080001ab   Thumb Code     0  _printf_d.o(.ARM.Collect$$_printf_percent$$00000009)
    _printf_u                                0x080001b1   Thumb Code     0  _printf_u.o(.ARM.Collect$$_printf_percent$$0000000A)
    _printf_x                                0x080001b7   Thumb Code     0  _printf_x.o(.ARM.Collect$$_printf_percent$$0000000C)
    _printf_c                                0x080001bd   Thumb Code     0  _printf_c.o(.ARM.Collect$$_printf_percent$$00000013)
    _printf_s                                0x080001c3   Thumb Code     0  _printf_s.o(.ARM.Collect$$_printf_percent$$00000014)
    _printf_percent_end                      0x080001c9   Thumb Code     0  _printf_percent_end.o(.ARM.Collect$$_printf_percent$$00000017)
    __rt_lib_init                            0x080001cd   Thumb Code     0  libinit.o(.ARM.Collect$$libinit$$00000000)
    __rt_lib_init_fp_1                       0x080001cf   Thumb Code     0  libinit2.o(.ARM.Collect$$libinit$$00000002)
    __rt_lib_init_heap_1                     0x080001cf   Thumb Code     0  libinit2.o(.ARM.Collect$$libinit$$0000000A)
    __rt_lib_init_lc_common                  0x080001cf   Thumb Code     0  libinit2.o(.ARM.Collect$$libinit$$0000000F)
    __rt_lib_init_preinit_1                  0x080001cf   Thumb Code     0  libinit2.o(.ARM.Collect$$libinit$$00000004)
    __rt_lib_init_rand_1                     0x080001cf   Thumb Code     0  libinit2.o(.ARM.Collect$$libinit$$0000000E)
    __rt_lib_init_user_alloc_1               0x080001cf   Thumb Code     0  libinit2.o(.ARM.Collect$$libinit$$0000000C)
    __rt_lib_init_lc_collate_1               0x080001d5   Thumb Code     0  libinit2.o(.ARM.Collect$$libinit$$00000011)
    __rt_lib_init_lc_ctype_1                 0x080001d5   Thumb Code     0  libinit2.o(.ARM.Collect$$libinit$$00000013)
    __rt_lib_init_lc_monetary_1              0x080001d5   Thumb Code     0  libinit2.o(.ARM.Collect$$libinit$$00000015)
    __rt_lib_init_lc_numeric_2               0x080001d5   Thumb Code     0  libinit2.o(.ARM.Collect$$libinit$$00000016)
    __rt_lib_init_alloca_1                   0x080001df   Thumb Code     0  libinit2.o(.ARM.Collect$$libinit$$0000002E)
    __rt_lib_init_argv_1                     0x080001df   Thumb Code     0  libinit2.o(.ARM.Collect$$libinit$$0000002C)
    __rt_lib_init_atexit_1                   0x080001df   Thumb Code     0  libinit2.o(.ARM.Collect$$libinit$$0000001B)
    __rt_lib_init_clock_1                    0x080001df   Thumb Code     0  libinit2.o(.ARM.Collect$$libinit$$00000021)
    __rt_lib_init_cpp_1                      0x080001df   Thumb Code     0  libinit2.o(.ARM.Collect$$libinit$$00000032)
    __rt_lib_init_exceptions_1               0x080001df   Thumb Code     0  libinit2.o(.ARM.Collect$$libinit$$00000030)
    __rt_lib_init_fp_trap_1                  0x080001df   Thumb Code     0  libinit2.o(.ARM.Collect$$libinit$$0000001F)
    __rt_lib_init_getenv_1                   0x080001df   Thumb Code     0  libinit2.o(.ARM.Collect$$libinit$$00000023)
    __rt_lib_init_lc_numeric_1               0x080001df   Thumb Code     0  libinit2.o(.ARM.Collect$$libinit$$00000017)
    __rt_lib_init_lc_time_1                  0x080001df   Thumb Code     0  libinit2.o(.ARM.Collect$$libinit$$00000019)
    __rt_lib_init_return                     0x080001df   Thumb Code     0  libinit2.o(.ARM.Collect$$libinit$$00000033)
    __rt_lib_init_signal_1                   0x080001df   Thumb Code     0  libinit2.o(.ARM.Collect$$libinit$$0000001D)
    __rt_lib_init_stdio_1                    0x080001df   Thumb Code     0  libinit2.o(.ARM.Collect$$libinit$$00000025)
    __rt_lib_shutdown                        0x080001e1   Thumb Code     0  libshutdown.o(.ARM.Collect$$libshutdown$$00000000)
    __rt_lib_shutdown_cpp_1                  0x080001e3   Thumb Code     0  libshutdown2.o(.ARM.Collect$$libshutdown$$00000002)
    __rt_lib_shutdown_fp_trap_1              0x080001e3   Thumb Code     0  libshutdown2.o(.ARM.Collect$$libshutdown$$00000007)
    __rt_lib_shutdown_heap_1                 0x080001e3   Thumb Code     0  libshutdown2.o(.ARM.Collect$$libshutdown$$0000000F)
    __rt_lib_shutdown_return                 0x080001e3   Thumb Code     0  libshutdown2.o(.ARM.Collect$$libshutdown$$00000010)
    __rt_lib_shutdown_signal_1               0x080001e3   Thumb Code     0  libshutdown2.o(.ARM.Collect$$libshutdown$$0000000A)
    __rt_lib_shutdown_stdio_1                0x080001e3   Thumb Code     0  libshutdown2.o(.ARM.Collect$$libshutdown$$00000004)
    __rt_lib_shutdown_user_alloc_1           0x080001e3   Thumb Code     0  libshutdown2.o(.ARM.Collect$$libshutdown$$0000000C)
    __rt_entry                               0x080001e5   Thumb Code     0  __rtentry.o(.ARM.Collect$$rtentry$$00000000)
    __rt_entry_presh_1                       0x080001e5   Thumb Code     0  __rtentry2.o(.ARM.Collect$$rtentry$$00000002)
    __rt_entry_sh                            0x080001e5   Thumb Code     0  __rtentry4.o(.ARM.Collect$$rtentry$$00000004)
    __rt_entry_li                            0x080001eb   Thumb Code     0  __rtentry2.o(.ARM.Collect$$rtentry$$0000000A)
    __rt_entry_postsh_1                      0x080001eb   Thumb Code     0  __rtentry2.o(.ARM.Collect$$rtentry$$00000009)
    __rt_entry_main                          0x080001ef   Thumb Code     0  __rtentry2.o(.ARM.Collect$$rtentry$$0000000D)
    __rt_entry_postli_1                      0x080001ef   Thumb Code     0  __rtentry2.o(.ARM.Collect$$rtentry$$0000000C)
    __rt_exit                                0x080001f7   Thumb Code     0  rtexit.o(.ARM.Collect$$rtexit$$00000000)
    __rt_exit_ls                             0x080001f9   Thumb Code     0  rtexit2.o(.ARM.Collect$$rtexit$$00000003)
    __rt_exit_prels_1                        0x080001f9   Thumb Code     0  rtexit2.o(.ARM.Collect$$rtexit$$00000002)
    __rt_exit_exit                           0x080001fd   Thumb Code     0  rtexit2.o(.ARM.Collect$$rtexit$$00000004)
    vPortSVCHandler                          0x08000205   Thumb Code    32  port.o(.emb_text)
    __asm___6_port_c_39a90d8d__prvStartFirstTask 0x08000229   Thumb Code    28  port.o(.emb_text)
    xPortPendSVHandler                       0x08000249   Thumb Code    72  port.o(.emb_text)
    vPortGetIPSR                             0x08000295   Thumb Code     6  port.o(.emb_text)
    Reset_Handler                            0x0800029d   Thumb Code     8  startup_stm32f10x_hd.o(.text)
    NMI_Handler                              0x080002a5   Thumb Code     2  startup_stm32f10x_hd.o(.text)
    HardFault_Handler                        0x080002a7   Thumb Code     2  startup_stm32f10x_hd.o(.text)
    MemManage_Handler                        0x080002a9   Thumb Code     2  startup_stm32f10x_hd.o(.text)
    BusFault_Handler                         0x080002ab   Thumb Code     2  startup_stm32f10x_hd.o(.text)
    UsageFault_Handler                       0x080002ad   Thumb Code     2  startup_stm32f10x_hd.o(.text)
    SVC_Handler                              0x080002af   Thumb Code     2  startup_stm32f10x_hd.o(.text)
    DebugMon_Handler                         0x080002b1   Thumb Code     2  startup_stm32f10x_hd.o(.text)
    PendSV_Handler                           0x080002b3   Thumb Code     2  startup_stm32f10x_hd.o(.text)
    SysTick_Handler                          0x080002b5   Thumb Code     2  startup_stm32f10x_hd.o(.text)
    ADC1_2_IRQHandler                        0x080002b7   Thumb Code     0  startup_stm32f10x_hd.o(.text)
    ADC3_IRQHandler                          0x080002b7   Thumb Code     0  startup_stm32f10x_hd.o(.text)
    CAN1_RX1_IRQHandler                      0x080002b7   Thumb Code     0  startup_stm32f10x_hd.o(.text)
    CAN1_SCE_IRQHandler                      0x080002b7   Thumb Code     0  startup_stm32f10x_hd.o(.text)
    DMA1_Channel1_IRQHandler                 0x080002b7   Thumb Code     0  startup_stm32f10x_hd.o(.text)
    DMA1_Channel2_IRQHandler                 0x080002b7   Thumb Code     0  startup_stm32f10x_hd.o(.text)
    DMA1_Channel3_IRQHandler                 0x080002b7   Thumb Code     0  startup_stm32f10x_hd.o(.text)
    DMA1_Channel4_IRQHandler                 0x080002b7   Thumb Code     0  startup_stm32f10x_hd.o(.text)
    DMA1_Channel5_IRQHandler                 0x080002b7   Thumb Code     0  startup_stm32f10x_hd.o(.text)
    DMA1_Channel6_IRQHandler                 0x080002b7   Thumb Code     0  startup_stm32f10x_hd.o(.text)
    DMA1_Channel7_IRQHandler                 0x080002b7   Thumb Code     0  startup_stm32f10x_hd.o(.text)
    DMA2_Channel1_IRQHandler                 0x080002b7   Thumb Code     0  startup_stm32f10x_hd.o(.text)
    DMA2_Channel2_IRQHandler                 0x080002b7   Thumb Code     0  startup_stm32f10x_hd.o(.text)
    DMA2_Channel3_IRQHandler                 0x080002b7   Thumb Code     0  startup_stm32f10x_hd.o(.text)
    DMA2_Channel4_5_IRQHandler               0x080002b7   Thumb Code     0  startup_stm32f10x_hd.o(.text)
    EXTI15_10_IRQHandler                     0x080002b7   Thumb Code     0  startup_stm32f10x_hd.o(.text)
    EXTI1_IRQHandler                         0x080002b7   Thumb Code     0  startup_stm32f10x_hd.o(.text)
    EXTI4_IRQHandler                         0x080002b7   Thumb Code     0  startup_stm32f10x_hd.o(.text)
    FLASH_IRQHandler                         0x080002b7   Thumb Code     0  startup_stm32f10x_hd.o(.text)
    FSMC_IRQHandler                          0x080002b7   Thumb Code     0  startup_stm32f10x_hd.o(.text)
    I2C1_ER_IRQHandler                       0x080002b7   Thumb Code     0  startup_stm32f10x_hd.o(.text)
    I2C1_EV_IRQHandler                       0x080002b7   Thumb Code     0  startup_stm32f10x_hd.o(.text)
    I2C2_ER_IRQHandler                       0x080002b7   Thumb Code     0  startup_stm32f10x_hd.o(.text)
    I2C2_EV_IRQHandler                       0x080002b7   Thumb Code     0  startup_stm32f10x_hd.o(.text)
    PVD_IRQHandler                           0x080002b7   Thumb Code     0  startup_stm32f10x_hd.o(.text)
    RCC_IRQHandler                           0x080002b7   Thumb Code     0  startup_stm32f10x_hd.o(.text)
    RTCAlarm_IRQHandler                      0x080002b7   Thumb Code     0  startup_stm32f10x_hd.o(.text)
    RTC_IRQHandler                           0x080002b7   Thumb Code     0  startup_stm32f10x_hd.o(.text)
    SDIO_IRQHandler                          0x080002b7   Thumb Code     0  startup_stm32f10x_hd.o(.text)
    SPI1_IRQHandler                          0x080002b7   Thumb Code     0  startup_stm32f10x_hd.o(.text)
    SPI2_IRQHandler                          0x080002b7   Thumb Code     0  startup_stm32f10x_hd.o(.text)
    SPI3_IRQHandler                          0x080002b7   Thumb Code     0  startup_stm32f10x_hd.o(.text)
    TAMPER_IRQHandler                        0x080002b7   Thumb Code     0  startup_stm32f10x_hd.o(.text)
    TIM1_BRK_IRQHandler                      0x080002b7   Thumb Code     0  startup_stm32f10x_hd.o(.text)
    TIM1_CC_IRQHandler                       0x080002b7   Thumb Code     0  startup_stm32f10x_hd.o(.text)
    TIM1_TRG_COM_IRQHandler                  0x080002b7   Thumb Code     0  startup_stm32f10x_hd.o(.text)
    TIM1_UP_IRQHandler                       0x080002b7   Thumb Code     0  startup_stm32f10x_hd.o(.text)
    TIM2_IRQHandler                          0x080002b7   Thumb Code     0  startup_stm32f10x_hd.o(.text)
    TIM3_IRQHandler                          0x080002b7   Thumb Code     0  startup_stm32f10x_hd.o(.text)
    TIM4_IRQHandler                          0x080002b7   Thumb Code     0  startup_stm32f10x_hd.o(.text)
    TIM5_IRQHandler                          0x080002b7   Thumb Code     0  startup_stm32f10x_hd.o(.text)
    TIM6_IRQHandler                          0x080002b7   Thumb Code     0  startup_stm32f10x_hd.o(.text)
    TIM7_IRQHandler                          0x080002b7   Thumb Code     0  startup_stm32f10x_hd.o(.text)
    TIM8_BRK_IRQHandler                      0x080002b7   Thumb Code     0  startup_stm32f10x_hd.o(.text)
    TIM8_CC_IRQHandler                       0x080002b7   Thumb Code     0  startup_stm32f10x_hd.o(.text)
    TIM8_TRG_COM_IRQHandler                  0x080002b7   Thumb Code     0  startup_stm32f10x_hd.o(.text)
    TIM8_UP_IRQHandler                       0x080002b7   Thumb Code     0  startup_stm32f10x_hd.o(.text)
    UART5_IRQHandler                         0x080002b7   Thumb Code     0  startup_stm32f10x_hd.o(.text)
    USART2_IRQHandler                        0x080002b7   Thumb Code     0  startup_stm32f10x_hd.o(.text)
    USBWakeUp_IRQHandler                     0x080002b7   Thumb Code     0  startup_stm32f10x_hd.o(.text)
    USB_HP_CAN1_TX_IRQHandler                0x080002b7   Thumb Code     0  startup_stm32f10x_hd.o(.text)
    USB_LP_CAN1_RX0_IRQHandler               0x080002b7   Thumb Code     0  startup_stm32f10x_hd.o(.text)
    WWDG_IRQHandler                          0x080002b7   Thumb Code     0  startup_stm32f10x_hd.o(.text)
    __user_initial_stackheap                 0x080002b9   Thumb Code     0  startup_stm32f10x_hd.o(.text)
    __use_no_semihosting                     0x080002dd   Thumb Code     2  use_no_semi_2.o(.text)
    __2printf                                0x080002e1   Thumb Code    20  noretval__2printf.o(.text)
    __2sprintf                               0x080002f9   Thumb Code    34  noretval__2sprintf.o(.text)
    _printf_pre_padding                      0x08000321   Thumb Code    44  _printf_pad.o(.text)
    _printf_post_padding                     0x0800034d   Thumb Code    34  _printf_pad.o(.text)
    _printf_str                              0x0800036f   Thumb Code    82  _printf_str.o(.text)
    _printf_int_dec                          0x080003c1   Thumb Code   104  _printf_dec.o(.text)
    _printf_int_hex                          0x08000439   Thumb Code    84  _printf_hex_int.o(.text)
    _printf_longlong_hex                     0x08000439   Thumb Code     0  _printf_hex_int.o(.text)
    __printf                                 0x08000491   Thumb Code   388  __printf_flags_ss_wp.o(.text)
    __aeabi_memcpy                           0x08000619   Thumb Code     0  rt_memcpy_v6.o(.text)
    __rt_memcpy                              0x08000619   Thumb Code   138  rt_memcpy_v6.o(.text)
    _memcpy_lastbytes                        0x0800067f   Thumb Code     0  rt_memcpy_v6.o(.text)
    __use_two_region_memory                  0x080006a3   Thumb Code     2  heapauxi.o(.text)
    __rt_heap_escrow$2region                 0x080006a5   Thumb Code     2  heapauxi.o(.text)
    __rt_heap_expand$2region                 0x080006a7   Thumb Code     2  heapauxi.o(.text)
    __I$use$semihosting                      0x080006a9   Thumb Code     0  use_no_semi.o(.text)
    __use_no_semihosting_swi                 0x080006a9   Thumb Code     2  use_no_semi.o(.text)
    _printf_int_common                       0x080006ab   Thumb Code   178  _printf_intcommon.o(.text)
    __lib_sel_fp_printf                      0x0800075d   Thumb Code     2  _printf_fp_dec.o(.text)
    _printf_fp_dec_real                      0x0800090f   Thumb Code   620  _printf_fp_dec.o(.text)
    _printf_char_common                      0x08000b87   Thumb Code    32  _printf_char_common.o(.text)
    _sputc                                   0x08000bad   Thumb Code    10  _sputc.o(.text)
    _printf_cs_common                        0x08000bb7   Thumb Code    20  _printf_char.o(.text)
    _printf_char                             0x08000bcb   Thumb Code    16  _printf_char.o(.text)
    _printf_string                           0x08000bdb   Thumb Code     8  _printf_char.o(.text)
    _printf_char_file                        0x08000be5   Thumb Code    32  _printf_char_file.o(.text)
    __aeabi_memcpy4                          0x08000c09   Thumb Code     0  rt_memcpy_w.o(.text)
    __aeabi_memcpy8                          0x08000c09   Thumb Code     0  rt_memcpy_w.o(.text)
    __rt_memcpy_w                            0x08000c09   Thumb Code   100  rt_memcpy_w.o(.text)
    _memcpy_lastbytes_aligned                0x08000c51   Thumb Code     0  rt_memcpy_w.o(.text)
    __rt_locale                              0x08000c6d   Thumb Code     8  rt_locale_intlibspace.o(.text)
    _ll_udiv10                               0x08000c75   Thumb Code   138  lludiv10.o(.text)
    _printf_fp_infnan                        0x08000d01   Thumb Code   112  _printf_fp_infnan.o(.text)
    _btod_etento                             0x08000d81   Thumb Code   224  bigflt0.o(.text)
    ferror                                   0x08000e65   Thumb Code     8  ferror.o(.text)
    __user_libspace                          0x08000e6d   Thumb Code     8  libspace.o(.text)
    __user_perproc_libspace                  0x08000e6d   Thumb Code     0  libspace.o(.text)
    __user_perthread_libspace                0x08000e6d   Thumb Code     0  libspace.o(.text)
    __user_setup_stackheap                   0x08000e75   Thumb Code    74  sys_stackheap_outer.o(.text)
    exit                                     0x08000ebf   Thumb Code    18  exit.o(.text)
    strcmp                                   0x08000ed1   Thumb Code   128  strcmpv7m.o(.text)
    _btod_d2e                                0x08000f51   Thumb Code    62  btod.o(CL$$btod_d2e)
    _d2e_denorm_low                          0x08000f8f   Thumb Code    70  btod.o(CL$$btod_d2e_denorm_low)
    _d2e_norm_op1                            0x08000fd5   Thumb Code    96  btod.o(CL$$btod_d2e_norm_op1)
    __btod_div_common                        0x08001035   Thumb Code   696  btod.o(CL$$btod_div_common)
    _e2e                                     0x0800136d   Thumb Code   220  btod.o(CL$$btod_e2e)
    _btod_ediv                               0x08001449   Thumb Code    42  btod.o(CL$$btod_ediv)
    _btod_emul                               0x08001473   Thumb Code    42  btod.o(CL$$btod_emul)
    __btod_mult_common                       0x0800149d   Thumb Code   580  btod.o(CL$$btod_mult_common)
    ADC1_Init                                0x080016e1   Thumb Code   176  sensor_adc.o(i.ADC1_Init)
    ADC1_ReadAvg                             0x0800179d   Thumb Code    40  sensor_adc.o(i.ADC1_ReadAvg)
    ADC1_ReadChannel                         0x080017c5   Thumb Code    46  sensor_adc.o(i.ADC1_ReadChannel)
    ADC_Cmd                                  0x080017f9   Thumb Code    22  stm32f10x_adc.o(i.ADC_Cmd)
    ADC_DeInit                               0x08001811   Thumb Code    78  stm32f10x_adc.o(i.ADC_DeInit)
    ADC_GetCalibrationStatus                 0x0800186d   Thumb Code    20  stm32f10x_adc.o(i.ADC_GetCalibrationStatus)
    ADC_GetConversionValue                   0x08001881   Thumb Code     8  stm32f10x_adc.o(i.ADC_GetConversionValue)
    ADC_GetFlagStatus                        0x08001889   Thumb Code    18  stm32f10x_adc.o(i.ADC_GetFlagStatus)
    ADC_GetResetCalibrationStatus            0x0800189b   Thumb Code    20  stm32f10x_adc.o(i.ADC_GetResetCalibrationStatus)
    ADC_Init                                 0x080018b1   Thumb Code    70  stm32f10x_adc.o(i.ADC_Init)
    ADC_RegularChannelConfig                 0x08001901   Thumb Code   184  stm32f10x_adc.o(i.ADC_RegularChannelConfig)
    ADC_ResetCalibration                     0x080019b9   Thumb Code    10  stm32f10x_adc.o(i.ADC_ResetCalibration)
    ADC_SoftwareStartConvCmd                 0x080019c3   Thumb Code    22  stm32f10x_adc.o(i.ADC_SoftwareStartConvCmd)
    ADC_StartCalibration                     0x080019d9   Thumb Code    10  stm32f10x_adc.o(i.ADC_StartCalibration)
    Buzzer_Set                               0x080019e5   Thumb Code    26  gpio_out.o(i.Buzzer_Set)
    CH451_Clear                              0x08001a05   Thumb Code    24  ch451.o(i.CH451_Clear)
    CH451_DisplayNum                         0x08001a1d   Thumb Code   144  ch451.o(i.CH451_DisplayNum)
    CH451_Init                               0x08001ab5   Thumb Code   142  ch451.o(i.CH451_Init)
    CH451_ReadKey                            0x08001b49   Thumb Code    98  ch451.o(i.CH451_ReadKey)
    CH451_SetDigit                           0x08001bb1   Thumb Code    38  ch451.o(i.CH451_SetDigit)
    CH451_WriteCmd                           0x08001bd9   Thumb Code   100  ch451.o(i.CH451_WriteCmd)
    DHT11_Init                               0x08001c41   Thumb Code    22  dht11.o(i.DHT11_Init)
    DHT11_Read                               0x08001c99   Thumb Code   252  dht11.o(i.DHT11_Read)
    DS18B20_Init                             0x08001e21   Thumb Code    22  ds18b20.o(i.DS18B20_Init)
    DS18B20_ReadByte                         0x08001eaf   Thumb Code    38  ds18b20.o(i.DS18B20_ReadByte)
    DS18B20_ReadTemp                         0x08001ef1   Thumb Code    96  ds18b20.o(i.DS18B20_ReadTemp)
    DS18B20_Reset                            0x08001f51   Thumb Code    70  ds18b20.o(i.DS18B20_Reset)
    DS18B20_StartConvert                     0x08001f97   Thumb Code    22  ds18b20.o(i.DS18B20_StartConvert)
    DS18B20_WriteByte                        0x08001fe5   Thumb Code    32  ds18b20.o(i.DS18B20_WriteByte)
    ENC_GetCount                             0x08002029   Thumb Code     6  encoder.o(i.ENC_GetCount)
    ENC_Init                                 0x08002035   Thumb Code   162  encoder.o(i.ENC_Init)
    ENC_Reset                                0x080020e5   Thumb Code     8  encoder.o(i.ENC_Reset)
    ENC_Z_IsPressed                          0x080020f1   Thumb Code    22  encoder.o(i.ENC_Z_IsPressed)
    EXTI0_IRQHandler                         0x0800210d   Thumb Code    58  infrared.o(i.EXTI0_IRQHandler)
    EXTI2_IRQHandler                         0x08002151   Thumb Code    24  gpio_in.o(i.EXTI2_IRQHandler)
    EXTI3_IRQHandler                         0x0800216d   Thumb Code    24  gpio_in.o(i.EXTI3_IRQHandler)
    EXTI9_5_IRQHandler                       0x08002189   Thumb Code    50  encoder.o(i.EXTI9_5_IRQHandler)
    EXTI_ClearITPendingBit                   0x080021c5   Thumb Code     6  stm32f10x_exti.o(i.EXTI_ClearITPendingBit)
    EXTI_GetITStatus                         0x080021d1   Thumb Code    34  stm32f10x_exti.o(i.EXTI_GetITStatus)
    EXTI_Init                                0x080021f9   Thumb Code   142  stm32f10x_exti.o(i.EXTI_Init)
    Exp10_Relay                              0x0800228d   Thumb Code   430  main.o(i.Exp10_Relay)
    Exp11_DHT11                              0x08002581   Thumb Code   260  main.o(i.Exp11_DHT11)
    Exp12_Thermistor                         0x080027a5   Thumb Code   256  main.o(i.Exp12_Thermistor)
    Exp13_DS18B20                            0x0800297d   Thumb Code   354  main.o(i.Exp13_DS18B20)
    Exp14_DA                                 0x08002bbd   Thumb Code   390  main.o(i.Exp14_DA)
    Exp15_RS232                              0x08002e29   Thumb Code   286  main.o(i.Exp15_RS232)
    Exp16_RS485                              0x08003079   Thumb Code   272  main.o(i.Exp16_RS485)
    Exp17_Infrared                           0x08003275   Thumb Code   398  main.o(i.Exp17_Infrared)
    Exp18_Encoder                            0x080034fd   Thumb Code   222  main.o(i.Exp18_Encoder)
    Exp18_StepperMotor                       0x080036b1   Thumb Code   312  main.o(i.Exp18_StepperMotor)
    Exp19_DCMotorPWM                         0x08003921   Thumb Code   150  main.o(i.Exp19_DCMotorPWM)
    Exp1_LED_Flowing                         0x08003a65   Thumb Code   202  main.o(i.Exp1_LED_Flowing)
    Exp20_Servo                              0x08003b7d   Thumb Code   214  main.o(i.Exp20_Servo)
    Exp2_KeyPolling                          0x08003d11   Thumb Code   288  main.o(i.Exp2_KeyPolling)
    Exp3_LightSensor                         0x08003ead   Thumb Code   292  main.o(i.Exp3_LightSensor)
    Exp4_USART1_Echo                         0x08004081   Thumb Code   218  main.o(i.Exp4_USART1_Echo)
    Exp5_TrafficLight                        0x080041cd   Thumb Code   358  main.o(i.Exp5_TrafficLight)
    Exp6_LCD12864                            0x080043f1   Thumb Code   362  main.o(i.Exp6_LCD12864)
    Exp7_CH451                               0x08004699   Thumb Code   268  main.o(i.Exp7_CH451)
    Exp8_IndependentKeys                     0x080048ad   Thumb Code   432  main.o(i.Exp8_IndependentKeys)
    Exp9_DIPSwitch                           0x08004b0d   Thumb Code   274  main.o(i.Exp9_DIPSwitch)
    GPIO_EXTILineConfig                      0x08004c8d   Thumb Code    60  stm32f10x_gpio.o(i.GPIO_EXTILineConfig)
    GPIO_Init                                0x08004ccd   Thumb Code   278  stm32f10x_gpio.o(i.GPIO_Init)
    GPIO_PinRemapConfig                      0x08004de5   Thumb Code   138  stm32f10x_gpio.o(i.GPIO_PinRemapConfig)
    GPIO_ReadInputDataBit                    0x08004e75   Thumb Code    18  stm32f10x_gpio.o(i.GPIO_ReadInputDataBit)
    GPIO_ResetBits                           0x08004e87   Thumb Code     4  stm32f10x_gpio.o(i.GPIO_ResetBits)
    GPIO_SetBits                             0x08004e8b   Thumb Code     4  stm32f10x_gpio.o(i.GPIO_SetBits)
    IKEY_EXTI_DeInit                         0x08004e8f   Thumb Code    84  gpio_in.o(i.IKEY_EXTI_DeInit)
    IKEY_EXTI_Init                           0x08004ee5   Thumb Code   178  gpio_in.o(i.IKEY_EXTI_Init)
    IKEY_Init                                0x08004fa5   Thumb Code    60  gpio_in.o(i.IKEY_Init)
    IKEY_Read                                0x08004fe9   Thumb Code    68  gpio_in.o(i.IKEY_Read)
    IR_Decode                                0x08005035   Thumb Code   238  infrared.o(i.IR_Decode)
    IR_EXTI_Disable                          0x08005123   Thumb Code    38  infrared.o(i.IR_EXTI_Disable)
    IR_EXTI_Enable                           0x08005149   Thumb Code    44  infrared.o(i.IR_EXTI_Enable)
    IR_Init                                  0x08005195   Thumb Code   106  infrared.o(i.IR_Init)
    LCD12864_Backlight                       0x08005275   Thumb Code    30  lcd12864.o(i.LCD12864_Backlight)
    LCD12864_Clear                           0x08005299   Thumb Code    16  lcd12864.o(i.LCD12864_Clear)
    LCD12864_Init                            0x080052a9   Thumb Code   200  lcd12864.o(i.LCD12864_Init)
    LCD12864_SetPos                          0x080053c9   Thumb Code    32  lcd12864.o(i.LCD12864_SetPos)
    LCD12864_WriteString                     0x08005465   Thumb Code    22  lcd12864.o(i.LCD12864_WriteString)
    LED_AllOff                               0x0800547d   Thumb Code    14  gpio_out.o(i.LED_AllOff)
    LED_Init                                 0x08005491   Thumb Code    50  gpio_out.o(i.LED_Init)
    LED_Set                                  0x080054c9   Thumb Code    44  gpio_out.o(i.LED_Set)
    Light_Percent                            0x080054fd   Thumb Code    32  sensor_adc.o(i.Light_Percent)
    Motor_Init                               0x0800551d   Thumb Code   154  timer_pwm.o(i.Motor_Init)
    Motor_SetDir                             0x080055c1   Thumb Code    46  timer_pwm.o(i.Motor_SetDir)
    Motor_SetSpeed                           0x080055f9   Thumb Code    38  timer_pwm.o(i.Motor_SetSpeed)
    Motor_Stop                               0x08005629   Thumb Code    20  timer_pwm.o(i.Motor_Stop)
    NVIC_Init                                0x08005641   Thumb Code   100  misc.o(i.NVIC_Init)
    NVIC_PriorityGroupConfig                 0x080056b1   Thumb Code    10  misc.o(i.NVIC_PriorityGroupConfig)
    RCC_APB1PeriphClockCmd                   0x080056c5   Thumb Code    26  stm32f10x_rcc.o(i.RCC_APB1PeriphClockCmd)
    RCC_APB2PeriphClockCmd                   0x080056e5   Thumb Code    26  stm32f10x_rcc.o(i.RCC_APB2PeriphClockCmd)
    RCC_APB2PeriphResetCmd                   0x08005705   Thumb Code    26  stm32f10x_rcc.o(i.RCC_APB2PeriphResetCmd)
    RCC_GetClocksFreq                        0x08005725   Thumb Code   192  stm32f10x_rcc.o(i.RCC_GetClocksFreq)
    RS232_Init                               0x080057f9   Thumb Code   182  rs232.o(i.RS232_Init)
    RS232_ReadByte                           0x080058c9   Thumb Code    54  rs232.o(i.RS232_ReadByte)
    RS232_RxAvailable                        0x0800590d   Thumb Code     6  rs232.o(i.RS232_RxAvailable)
    RS232_SendByte                           0x08005919   Thumb Code    28  rs232.o(i.RS232_SendByte)
    RS232_SendString                         0x08005939   Thumb Code    22  rs232.o(i.RS232_SendString)
    RS485_Init                               0x08005951   Thumb Code   214  rs485.o(i.RS485_Init)
    RS485_ReadByte                           0x08005a41   Thumb Code    54  rs485.o(i.RS485_ReadByte)
    RS485_RxAvailable                        0x08005a85   Thumb Code     6  rs485.o(i.RS485_RxAvailable)
    RS485_SendByte                           0x08005a91   Thumb Code    70  rs485.o(i.RS485_SendByte)
    RS485_SendString                         0x08005add   Thumb Code    22  rs485.o(i.RS485_SendString)
    RS485_SetRX                              0x08005af5   Thumb Code    14  rs485.o(i.RS485_SetRX)
    RS485_SetTX                              0x08005b09   Thumb Code    14  rs485.o(i.RS485_SetTX)
    Relay_Init                               0x08005b1d   Thumb Code    60  relay.o(i.Relay_Init)
    Relay_Set                                0x08005b5d   Thumb Code    56  relay.o(i.Relay_Set)
    SW_Init                                  0x08005c41   Thumb Code   168  gpio_in.o(i.SW_Init)
    SW_ReadAll                               0x08005cfd   Thumb Code   126  gpio_in.o(i.SW_ReadAll)
    Stepper_Init                             0x08005e75   Thumb Code    62  stepper.o(i.Stepper_Init)
    Stepper_StepCCW                          0x08005f35   Thumb Code    88  stepper.o(i.Stepper_StepCCW)
    Stepper_StepCW                           0x08005fed   Thumb Code    84  stepper.o(i.Stepper_StepCW)
    Stepper_Stop                             0x080060a1   Thumb Code    14  stepper.o(i.Stepper_Stop)
    SystemInit                               0x080060b5   Thumb Code    78  system_stm32f10x.o(i.SystemInit)
    TIM4_Servo_Init                          0x08006115   Thumb Code   142  timer_pwm.o(i.TIM4_Servo_Init)
    TIM4_Servo_SetAngle                      0x080061ad   Thumb Code    38  timer_pwm.o(i.TIM4_Servo_SetAngle)
    TIM_Cmd                                  0x080061d9   Thumb Code    24  stm32f10x_tim.o(i.TIM_Cmd)
    TIM_OC1Init                              0x080061f1   Thumb Code   132  stm32f10x_tim.o(i.TIM_OC1Init)
    TIM_OC2Init                              0x08006289   Thumb Code   154  stm32f10x_tim.o(i.TIM_OC2Init)
    TIM_OC3Init                              0x0800632d   Thumb Code   150  stm32f10x_tim.o(i.TIM_OC3Init)
    TIM_SetCompare1                          0x080063cd   Thumb Code     4  stm32f10x_tim.o(i.TIM_SetCompare1)
    TIM_SetCompare2                          0x080063d1   Thumb Code     4  stm32f10x_tim.o(i.TIM_SetCompare2)
    TIM_SetCompare3                          0x080063d5   Thumb Code     4  stm32f10x_tim.o(i.TIM_SetCompare3)
    TIM_SetCounter                           0x080063d9   Thumb Code     4  stm32f10x_tim.o(i.TIM_SetCounter)
    TIM_TimeBaseInit                         0x080063dd   Thumb Code   122  stm32f10x_tim.o(i.TIM_TimeBaseInit)
    TLC5615_Init                             0x08006481   Thumb Code    66  tlc5615.o(i.TLC5615_Init)
    TLC5615_SetValue                         0x0800653d   Thumb Code    26  tlc5615.o(i.TLC5615_SetValue)
    TrafficLight_Init                        0x08006559   Thumb Code    54  gpio_out.o(i.TrafficLight_Init)
    TrafficLight_Set                         0x08006595   Thumb Code   104  gpio_out.o(i.TrafficLight_Set)
    UART4_IRQHandler                         0x08006601   Thumb Code    74  rs485.o(i.UART4_IRQHandler)
    USART1_IRQHandler                        0x0800665d   Thumb Code    74  usart_debug.o(i.USART1_IRQHandler)
    USART3_IRQHandler                        0x080066b9   Thumb Code    74  rs232.o(i.USART3_IRQHandler)
    USART_Cmd                                0x08006715   Thumb Code    24  stm32f10x_usart.o(i.USART_Cmd)
    USART_GetFlagStatus                      0x0800672d   Thumb Code    26  stm32f10x_usart.o(i.USART_GetFlagStatus)
    USART_GetITStatus                        0x08006747   Thumb Code    84  stm32f10x_usart.o(i.USART_GetITStatus)
    USART_ITConfig                           0x0800679b   Thumb Code    74  stm32f10x_usart.o(i.USART_ITConfig)
    USART_Init                               0x080067e5   Thumb Code   210  stm32f10x_usart.o(i.USART_Init)
    USART_RX_Available                       0x080068bd   Thumb Code     6  usart_debug.o(i.USART_RX_Available)
    USART_RX_DeInit                          0x080068c9   Thumb Code    16  usart_debug.o(i.USART_RX_DeInit)
    USART_RX_Flush                           0x080068dd   Thumb Code    16  usart_debug.o(i.USART_RX_Flush)
    USART_RX_Init                            0x080068f9   Thumb Code    44  usart_debug.o(i.USART_RX_Init)
    USART_RX_Read                            0x08006929   Thumb Code    54  usart_debug.o(i.USART_RX_Read)
    USART_ReceiveData                        0x0800696d   Thumb Code    10  stm32f10x_usart.o(i.USART_ReceiveData)
    USART_SendData                           0x08006977   Thumb Code     8  stm32f10x_usart.o(i.USART_SendData)
    WKUP_Init                                0x08006981   Thumb Code    32  main.o(i.WKUP_Init)
    WKUP_IsPressed                           0x080069a5   Thumb Code    20  main.o(i.WKUP_IsPressed)
    __ARM_fpclassify                         0x080069bd   Thumb Code    40  fpclassify.o(i.__ARM_fpclassify)
    _is_digit                                0x080069e5   Thumb Code    14  __printf_wp.o(i._is_digit)
    _sys_exit                                0x080069f3   Thumb Code     2  usart.o(i._sys_exit)
    delay_ms                                 0x080069f5   Thumb Code    66  delay.o(i.delay_ms)
    delay_us                                 0x08006a3d   Thumb Code    34  delay_us.o(i.delay_us)
    delay_us_init                            0x08006a6d   Thumb Code    30  delay_us.o(i.delay_us_init)
    fputc                                    0x08006a95   Thumb Code    24  usart.o(i.fputc)
    freertos_init                            0x08006ab1   Thumb Code    60  freertos_tasks.o(i.freertos_init)
    main                                     0x08006b15   Thumb Code   120  main.o(i.main)
    pvPortMalloc                             0x08007145   Thumb Code   166  heap_2.o(i.pvPortMalloc)
    pxPortInitialiseStack                    0x080071fd   Thumb Code    30  port.o(i.pxPortInitialiseStack)
    usart_init                               0x08007221   Thumb Code   118  usart.o(i.usart_init)
    uxListRemove                             0x080072a1   Thumb Code    40  list.o(i.uxListRemove)
    vControlTask                             0x080072c9   Thumb Code   100  freertos_tasks.o(i.vControlTask)
    vExperimentTask                          0x08007339   Thumb Code    48  freertos_tasks.o(i.vExperimentTask)
    vListInitialise                          0x08007395   Thumb Code    26  list.o(i.vListInitialise)
    vListInitialiseItem                      0x080073af   Thumb Code     6  list.o(i.vListInitialiseItem)
    vListInsert                              0x080073b5   Thumb Code    52  list.o(i.vListInsert)
    vListInsertEnd                           0x080073e9   Thumb Code    24  list.o(i.vListInsertEnd)
    vPortEnterCritical                       0x08007401   Thumb Code    30  port.o(i.vPortEnterCritical)
    vPortExitCritical                        0x08007425   Thumb Code    28  port.o(i.vPortExitCritical)
    vPortFree                                0x08007445   Thumb Code    56  heap_2.o(i.vPortFree)
    vPortSetupTimerInterrupt                 0x08007485   Thumb Code    14  port.o(i.vPortSetupTimerInterrupt)
    vTaskDelay                               0x08007499   Thumb Code    46  tasks.o(i.vTaskDelay)
    vTaskMissedYield                         0x080074cd   Thumb Code     8  tasks.o(i.vTaskMissedYield)
    vTaskPlaceOnEventList                    0x080074d9   Thumb Code    28  tasks.o(i.vTaskPlaceOnEventList)
    vTaskSetTimeOutState                     0x080074f9   Thumb Code    14  tasks.o(i.vTaskSetTimeOutState)
    vTaskStartScheduler                      0x08007511   Thumb Code    72  tasks.o(i.vTaskStartScheduler)
    vTaskSuspendAll                          0x08007575   Thumb Code    12  tasks.o(i.vTaskSuspendAll)
    vTaskSwitchContext                       0x08007585   Thumb Code    76  tasks.o(i.vTaskSwitchContext)
    xPortStartScheduler                      0x080075e5   Thumb Code    42  port.o(i.xPortStartScheduler)
    xPortSysTickHandler                      0x08007619   Thumb Code    46  port.o(i.xPortSysTickHandler)
    xQueueGenericCreate                      0x0800764d   Thumb Code    56  queue.o(i.xQueueGenericCreate)
    xQueueGenericReceive                     0x08007685   Thumb Code   312  queue.o(i.xQueueGenericReceive)
    xQueueGenericReset                       0x080077c1   Thumb Code   122  queue.o(i.xQueueGenericReset)
    xQueueGenericSend                        0x08007841   Thumb Code   276  queue.o(i.xQueueGenericSend)
    xTaskCheckForTimeOut                     0x08007959   Thumb Code    84  tasks.o(i.xTaskCheckForTimeOut)
    xTaskCreate                              0x080079b5   Thumb Code    96  tasks.o(i.xTaskCreate)
    xTaskIncrementTick                       0x08007a15   Thumb Code   238  tasks.o(i.xTaskIncrementTick)
    xTaskRemoveFromEventList                 0x08007b31   Thumb Code   104  tasks.o(i.xTaskRemoveFromEventList)
    xTaskResumeAll                           0x08007bb1   Thumb Code   196  tasks.o(i.xTaskResumeAll)
    _get_lc_numeric                          0x08007c99   Thumb Code    44  lc_numeric_c.o(locale$$code)
    __fpl_dretinf                            0x08007cc5   Thumb Code    12  dretinf.o(x$fpl$dretinf)
    __aeabi_f2d                              0x08007cd1   Thumb Code     0  f2d.o(x$fpl$f2d)
    _f2d                                     0x08007cd1   Thumb Code    86  f2d.o(x$fpl$f2d)
    __aeabi_fdiv                             0x08007d29   Thumb Code     0  fdiv.o(x$fpl$fdiv)
    _fdiv                                    0x08007d29   Thumb Code   384  fdiv.o(x$fpl$fdiv)
    __aeabi_ui2f                             0x08007ead   Thumb Code     0  fflt_clz.o(x$fpl$ffltu)
    _ffltu                                   0x08007ead   Thumb Code    38  fflt_clz.o(x$fpl$ffltu)
    __aeabi_fmul                             0x08007ed5   Thumb Code     0  fmul.o(x$fpl$fmul)
    _fmul                                    0x08007ed5   Thumb Code   258  fmul.o(x$fpl$fmul)
    __fpl_fnaninf                            0x08007fd7   Thumb Code   140  fnaninf.o(x$fpl$fnaninf)
    __fpl_fretinf                            0x08008063   Thumb Code    10  fretinf.o(x$fpl$fretinf)
    _printf_fp_dec                           0x0800806d   Thumb Code     4  printf1.o(x$fpl$printf1)
    __I$use$fp                               0x08008070   Number         0  usenofp.o(x$fpl$usenofp)
    Region$$Table$$Base                      0x0800815c   Number         0  anon$$obj.o(Region$$Table)
    Region$$Table$$Limit                     0x0800817c   Number         0  anon$$obj.o(Region$$Table)
    xModeQueue                               0x20000000   Data           4  freertos_tasks.o(.data)
    stop_requested                           0x20000004   Data           1  freertos_tasks.o(.data)
    scheduler_started                        0x20000005   Data           1  freertos_tasks.o(.data)
    xControlTaskHandle                       0x20000008   Data           4  freertos_tasks.o(.data)
    xExperimentTaskHandle                    0x2000000c   Data           4  freertos_tasks.o(.data)
    __stdout                                 0x20000010   Data           4  usart.o(.data)
    ikey_pressed                             0x20000017   Data           4  gpio_in.o(.data)
    ir_received                              0x2000001b   Data           1  infrared.o(.data)
    enc_count                                0x20000024   Data           4  encoder.o(.data)
    pxCurrentTCB                             0x20000048   Data           4  tasks.o(.data)
    SystemCoreClock                          0x20000098   Data           4  system_stm32f10x.o(.data)
    AHBPrescTable                            0x2000009c   Data          16  system_stm32f10x.o(.data)
    __libspace_start                         0x20004874   Data          96  libspace.o(.bss)
    __temporary_stack_top$libspace           0x200048d4   Data           0  libspace.o(.bss)



==============================================================================

Memory Map of the image

  Image Entry point : 0x08000131

  Load Region LR_IROM1 (Base: 0x08000000, Size: 0x00008244, Max: 0x00080000, ABSOLUTE)

    Execution Region ER_IROM1 (Exec base: 0x08000000, Load base: 0x08000000, Size: 0x00008198, Max: 0x00080000, ABSOLUTE)

    Exec Addr    Load Addr    Size         Type   Attr      Idx    E Section Name        Object

    0x08000000   0x08000000   0x00000130   Data   RO         3743    RESET               startup_stm32f10x_hd.o
    0x08000130   0x08000130   0x00000008   Code   RO         3866  * !!!main             c_w.l(__main.o)
    0x08000138   0x08000138   0x00000034   Code   RO         4130    !!!scatter          c_w.l(__scatter.o)
    0x0800016c   0x0800016c   0x0000001a   Code   RO         4132    !!handler_copy      c_w.l(__scatter_copy.o)
    0x08000186   0x08000186   0x00000002   PAD
    0x08000188   0x08000188   0x0000001c   Code   RO         4134    !!handler_zi        c_w.l(__scatter_zi.o)
    0x080001a4   0x080001a4   0x00000000   Code   RO         3861    .ARM.Collect$$_printf_percent$$00000000  c_w.l(_printf_percent.o)
    0x080001a4   0x080001a4   0x00000006   Code   RO         3860    .ARM.Collect$$_printf_percent$$00000003  c_w.l(_printf_f.o)
    0x080001aa   0x080001aa   0x00000006   Code   RO         3858    .ARM.Collect$$_printf_percent$$00000009  c_w.l(_printf_d.o)
    0x080001b0   0x080001b0   0x00000006   Code   RO         3859    .ARM.Collect$$_printf_percent$$0000000A  c_w.l(_printf_u.o)
    0x080001b6   0x080001b6   0x00000006   Code   RO         3857    .ARM.Collect$$_printf_percent$$0000000C  c_w.l(_printf_x.o)
    0x080001bc   0x080001bc   0x00000006   Code   RO         3855    .ARM.Collect$$_printf_percent$$00000013  c_w.l(_printf_c.o)
    0x080001c2   0x080001c2   0x00000006   Code   RO         3856    .ARM.Collect$$_printf_percent$$00000014  c_w.l(_printf_s.o)
    0x080001c8   0x080001c8   0x00000004   Code   RO         3919    .ARM.Collect$$_printf_percent$$00000017  c_w.l(_printf_percent_end.o)
    0x080001cc   0x080001cc   0x00000002   Code   RO         4007    .ARM.Collect$$libinit$$00000000  c_w.l(libinit.o)
    0x080001ce   0x080001ce   0x00000000   Code   RO         4009    .ARM.Collect$$libinit$$00000002  c_w.l(libinit2.o)
    0x080001ce   0x080001ce   0x00000000   Code   RO         4011    .ARM.Collect$$libinit$$00000004  c_w.l(libinit2.o)
    0x080001ce   0x080001ce   0x00000000   Code   RO         4014    .ARM.Collect$$libinit$$0000000A  c_w.l(libinit2.o)
    0x080001ce   0x080001ce   0x00000000   Code   RO         4016    .ARM.Collect$$libinit$$0000000C  c_w.l(libinit2.o)
    0x080001ce   0x080001ce   0x00000000   Code   RO         4018    .ARM.Collect$$libinit$$0000000E  c_w.l(libinit2.o)
    0x080001ce   0x080001ce   0x00000006   Code   RO         4019    .ARM.Collect$$libinit$$0000000F  c_w.l(libinit2.o)
    0x080001d4   0x080001d4   0x00000000   Code   RO         4021    .ARM.Collect$$libinit$$00000011  c_w.l(libinit2.o)
    0x080001d4   0x080001d4   0x00000000   Code   RO         4023    .ARM.Collect$$libinit$$00000013  c_w.l(libinit2.o)
    0x080001d4   0x080001d4   0x00000000   Code   RO         4025    .ARM.Collect$$libinit$$00000015  c_w.l(libinit2.o)
    0x080001d4   0x080001d4   0x0000000a   Code   RO         4026    .ARM.Collect$$libinit$$00000016  c_w.l(libinit2.o)
    0x080001de   0x080001de   0x00000000   Code   RO         4027    .ARM.Collect$$libinit$$00000017  c_w.l(libinit2.o)
    0x080001de   0x080001de   0x00000000   Code   RO         4029    .ARM.Collect$$libinit$$00000019  c_w.l(libinit2.o)
    0x080001de   0x080001de   0x00000000   Code   RO         4031    .ARM.Collect$$libinit$$0000001B  c_w.l(libinit2.o)
    0x080001de   0x080001de   0x00000000   Code   RO         4033    .ARM.Collect$$libinit$$0000001D  c_w.l(libinit2.o)
    0x080001de   0x080001de   0x00000000   Code   RO         4035    .ARM.Collect$$libinit$$0000001F  c_w.l(libinit2.o)
    0x080001de   0x080001de   0x00000000   Code   RO         4037    .ARM.Collect$$libinit$$00000021  c_w.l(libinit2.o)
    0x080001de   0x080001de   0x00000000   Code   RO         4039    .ARM.Collect$$libinit$$00000023  c_w.l(libinit2.o)
    0x080001de   0x080001de   0x00000000   Code   RO         4041    .ARM.Collect$$libinit$$00000025  c_w.l(libinit2.o)
    0x080001de   0x080001de   0x00000000   Code   RO         4045    .ARM.Collect$$libinit$$0000002C  c_w.l(libinit2.o)
    0x080001de   0x080001de   0x00000000   Code   RO         4047    .ARM.Collect$$libinit$$0000002E  c_w.l(libinit2.o)
    0x080001de   0x080001de   0x00000000   Code   RO         4049    .ARM.Collect$$libinit$$00000030  c_w.l(libinit2.o)
    0x080001de   0x080001de   0x00000000   Code   RO         4051    .ARM.Collect$$libinit$$00000032  c_w.l(libinit2.o)
    0x080001de   0x080001de   0x00000002   Code   RO         4052    .ARM.Collect$$libinit$$00000033  c_w.l(libinit2.o)
    0x080001e0   0x080001e0   0x00000002   Code   RO         4080    .ARM.Collect$$libshutdown$$00000000  c_w.l(libshutdown.o)
    0x080001e2   0x080001e2   0x00000000   Code   RO         4089    .ARM.Collect$$libshutdown$$00000002  c_w.l(libshutdown2.o)
    0x080001e2   0x080001e2   0x00000000   Code   RO         4091    .ARM.Collect$$libshutdown$$00000004  c_w.l(libshutdown2.o)
    0x080001e2   0x080001e2   0x00000000   Code   RO         4094    .ARM.Collect$$libshutdown$$00000007  c_w.l(libshutdown2.o)
    0x080001e2   0x080001e2   0x00000000   Code   RO         4097    .ARM.Collect$$libshutdown$$0000000A  c_w.l(libshutdown2.o)
    0x080001e2   0x080001e2   0x00000000   Code   RO         4099    .ARM.Collect$$libshutdown$$0000000C  c_w.l(libshutdown2.o)
    0x080001e2   0x080001e2   0x00000000   Code   RO         4102    .ARM.Collect$$libshutdown$$0000000F  c_w.l(libshutdown2.o)
    0x080001e2   0x080001e2   0x00000002   Code   RO         4103    .ARM.Collect$$libshutdown$$00000010  c_w.l(libshutdown2.o)
    0x080001e4   0x080001e4   0x00000000   Code   RO         3906    .ARM.Collect$$rtentry$$00000000  c_w.l(__rtentry.o)
    0x080001e4   0x080001e4   0x00000000   Code   RO         3932    .ARM.Collect$$rtentry$$00000002  c_w.l(__rtentry2.o)
    0x080001e4   0x080001e4   0x00000006   Code   RO         3944    .ARM.Collect$$rtentry$$00000004  c_w.l(__rtentry4.o)
    0x080001ea   0x080001ea   0x00000000   Code   RO         3934    .ARM.Collect$$rtentry$$00000009  c_w.l(__rtentry2.o)
    0x080001ea   0x080001ea   0x00000004   Code   RO         3935    .ARM.Collect$$rtentry$$0000000A  c_w.l(__rtentry2.o)
    0x080001ee   0x080001ee   0x00000000   Code   RO         3937    .ARM.Collect$$rtentry$$0000000C  c_w.l(__rtentry2.o)
    0x080001ee   0x080001ee   0x00000008   Code   RO         3938    .ARM.Collect$$rtentry$$0000000D  c_w.l(__rtentry2.o)
    0x080001f6   0x080001f6   0x00000002   Code   RO         4053    .ARM.Collect$$rtexit$$00000000  c_w.l(rtexit.o)
    0x080001f8   0x080001f8   0x00000000   Code   RO         4060    .ARM.Collect$$rtexit$$00000002  c_w.l(rtexit2.o)
    0x080001f8   0x080001f8   0x00000004   Code   RO         4061    .ARM.Collect$$rtexit$$00000003  c_w.l(rtexit2.o)
    0x080001fc   0x080001fc   0x00000006   Code   RO         4062    .ARM.Collect$$rtexit$$00000004  c_w.l(rtexit2.o)
    0x08000202   0x08000202   0x00000002   PAD
    0x08000204   0x08000204   0x00000096   Code   RO         1814    .emb_text           port.o
    0x0800029a   0x0800029a   0x00000002   PAD
    0x0800029c   0x0800029c   0x00000040   Code   RO         3744    .text               startup_stm32f10x_hd.o
    0x080002dc   0x080002dc   0x00000002   Code   RO         3796    .text               c_w.l(use_no_semi_2.o)
    0x080002de   0x080002de   0x00000002   PAD
    0x080002e0   0x080002e0   0x00000018   Code   RO         3802    .text               c_w.l(noretval__2printf.o)
    0x080002f8   0x080002f8   0x00000028   Code   RO         3804    .text               c_w.l(noretval__2sprintf.o)
    0x08000320   0x08000320   0x0000004e   Code   RO         3808    .text               c_w.l(_printf_pad.o)
    0x0800036e   0x0800036e   0x00000052   Code   RO         3810    .text               c_w.l(_printf_str.o)
    0x080003c0   0x080003c0   0x00000078   Code   RO         3812    .text               c_w.l(_printf_dec.o)
    0x08000438   0x08000438   0x00000058   Code   RO         3817    .text               c_w.l(_printf_hex_int.o)
    0x08000490   0x08000490   0x00000188   Code   RO         3852    .text               c_w.l(__printf_flags_ss_wp.o)
    0x08000618   0x08000618   0x0000008a   Code   RO         3862    .text               c_w.l(rt_memcpy_v6.o)
    0x080006a2   0x080006a2   0x00000006   Code   RO         3864    .text               c_w.l(heapauxi.o)
    0x080006a8   0x080006a8   0x00000002   Code   RO         3904    .text               c_w.l(use_no_semi.o)
    0x080006aa   0x080006aa   0x000000b2   Code   RO         3907    .text               c_w.l(_printf_intcommon.o)
    0x0800075c   0x0800075c   0x0000041e   Code   RO         3909    .text               c_w.l(_printf_fp_dec.o)
    0x08000b7a   0x08000b7a   0x00000002   PAD
    0x08000b7c   0x08000b7c   0x00000030   Code   RO         3911    .text               c_w.l(_printf_char_common.o)
    0x08000bac   0x08000bac   0x0000000a   Code   RO         3913    .text               c_w.l(_sputc.o)
    0x08000bb6   0x08000bb6   0x0000002c   Code   RO         3915    .text               c_w.l(_printf_char.o)
    0x08000be2   0x08000be2   0x00000002   PAD
    0x08000be4   0x08000be4   0x00000024   Code   RO         3917    .text               c_w.l(_printf_char_file.o)
    0x08000c08   0x08000c08   0x00000064   Code   RO         3920    .text               c_w.l(rt_memcpy_w.o)
    0x08000c6c   0x08000c6c   0x00000008   Code   RO         3949    .text               c_w.l(rt_locale_intlibspace.o)
    0x08000c74   0x08000c74   0x0000008a   Code   RO         3951    .text               c_w.l(lludiv10.o)
    0x08000cfe   0x08000cfe   0x00000002   PAD
    0x08000d00   0x08000d00   0x00000080   Code   RO         3953    .text               c_w.l(_printf_fp_infnan.o)
    0x08000d80   0x08000d80   0x000000e4   Code   RO         3957    .text               c_w.l(bigflt0.o)
    0x08000e64   0x08000e64   0x00000008   Code   RO         3982    .text               c_w.l(ferror.o)
    0x08000e6c   0x08000e6c   0x00000008   Code   RO         3993    .text               c_w.l(libspace.o)
    0x08000e74   0x08000e74   0x0000004a   Code   RO         3996    .text               c_w.l(sys_stackheap_outer.o)
    0x08000ebe   0x08000ebe   0x00000012   Code   RO         3998    .text               c_w.l(exit.o)
    0x08000ed0   0x08000ed0   0x00000080   Code   RO         4000    .text               c_w.l(strcmpv7m.o)
    0x08000f50   0x08000f50   0x0000003e   Code   RO         3960    CL$$btod_d2e        c_w.l(btod.o)
    0x08000f8e   0x08000f8e   0x00000046   Code   RO         3962    CL$$btod_d2e_denorm_low  c_w.l(btod.o)
    0x08000fd4   0x08000fd4   0x00000060   Code   RO         3961    CL$$btod_d2e_norm_op1  c_w.l(btod.o)
    0x08001034   0x08001034   0x00000338   Code   RO         3970    CL$$btod_div_common  c_w.l(btod.o)
    0x0800136c   0x0800136c   0x000000dc   Code   RO         3967    CL$$btod_e2e        c_w.l(btod.o)
    0x08001448   0x08001448   0x0000002a   Code   RO         3964    CL$$btod_ediv       c_w.l(btod.o)
    0x08001472   0x08001472   0x0000002a   Code   RO         3963    CL$$btod_emul       c_w.l(btod.o)
    0x0800149c   0x0800149c   0x00000244   Code   RO         3969    CL$$btod_mult_common  c_w.l(btod.o)
    0x080016e0   0x080016e0   0x000000bc   Code   RO         1641    i.ADC1_Init         sensor_adc.o
    0x0800179c   0x0800179c   0x00000028   Code   RO         1642    i.ADC1_ReadAvg      sensor_adc.o
    0x080017c4   0x080017c4   0x00000034   Code   RO         1643    i.ADC1_ReadChannel  sensor_adc.o
    0x080017f8   0x080017f8   0x00000016   Code   RO         2360    i.ADC_Cmd           stm32f10x_adc.o
    0x0800180e   0x0800180e   0x00000002   PAD
    0x08001810   0x08001810   0x0000005c   Code   RO         2362    i.ADC_DeInit        stm32f10x_adc.o
    0x0800186c   0x0800186c   0x00000014   Code   RO         2368    i.ADC_GetCalibrationStatus  stm32f10x_adc.o
    0x08001880   0x08001880   0x00000008   Code   RO         2369    i.ADC_GetConversionValue  stm32f10x_adc.o
    0x08001888   0x08001888   0x00000012   Code   RO         2371    i.ADC_GetFlagStatus  stm32f10x_adc.o
    0x0800189a   0x0800189a   0x00000014   Code   RO         2374    i.ADC_GetResetCalibrationStatus  stm32f10x_adc.o
    0x080018ae   0x080018ae   0x00000002   PAD
    0x080018b0   0x080018b0   0x00000050   Code   RO         2378    i.ADC_Init          stm32f10x_adc.o
    0x08001900   0x08001900   0x000000b8   Code   RO         2382    i.ADC_RegularChannelConfig  stm32f10x_adc.o
    0x080019b8   0x080019b8   0x0000000a   Code   RO         2383    i.ADC_ResetCalibration  stm32f10x_adc.o
    0x080019c2   0x080019c2   0x00000016   Code   RO         2385    i.ADC_SoftwareStartConvCmd  stm32f10x_adc.o
    0x080019d8   0x080019d8   0x0000000a   Code   RO         2387    i.ADC_StartCalibration  stm32f10x_adc.o
    0x080019e2   0x080019e2   0x00000002   PAD
    0x080019e4   0x080019e4   0x00000020   Code   RO          762    i.Buzzer_Set        gpio_out.o
    0x08001a04   0x08001a04   0x00000018   Code   RO         1507    i.CH451_Clear       ch451.o
    0x08001a1c   0x08001a1c   0x00000098   Code   RO         1508    i.CH451_DisplayNum  ch451.o
    0x08001ab4   0x08001ab4   0x00000094   Code   RO         1509    i.CH451_Init        ch451.o
    0x08001b48   0x08001b48   0x00000068   Code   RO         1510    i.CH451_ReadKey     ch451.o
    0x08001bb0   0x08001bb0   0x00000026   Code   RO         1512    i.CH451_SetDigit    ch451.o
    0x08001bd6   0x08001bd6   0x00000002   PAD
    0x08001bd8   0x08001bd8   0x00000068   Code   RO         1514    i.CH451_WriteCmd    ch451.o
    0x08001c40   0x08001c40   0x00000016   Code   RO          911    i.DHT11_Init        dht11.o
    0x08001c56   0x08001c56   0x00000002   PAD
    0x08001c58   0x08001c58   0x0000001c   Code   RO          912    i.DHT11_PinIn       dht11.o
    0x08001c74   0x08001c74   0x00000024   Code   RO          913    i.DHT11_PinOut      dht11.o
    0x08001c98   0x08001c98   0x000000fc   Code   RO          914    i.DHT11_Read        dht11.o
    0x08001d94   0x08001d94   0x00000054   Code   RO          915    i.DHT11_ReadByte    dht11.o
    0x08001de8   0x08001de8   0x00000018   Code   RO          916    i.DHT11_ReadPin     dht11.o
    0x08001e00   0x08001e00   0x00000020   Code   RO          917    i.DHT11_WritePin    dht11.o
    0x08001e20   0x08001e20   0x00000016   Code   RO          966    i.DS18B20_Init      ds18b20.o
    0x08001e36   0x08001e36   0x00000002   PAD
    0x08001e38   0x08001e38   0x00000020   Code   RO          967    i.DS18B20_PinIn     ds18b20.o
    0x08001e58   0x08001e58   0x00000024   Code   RO          968    i.DS18B20_PinOut    ds18b20.o
    0x08001e7c   0x08001e7c   0x00000032   Code   RO          969    i.DS18B20_ReadBit   ds18b20.o
    0x08001eae   0x08001eae   0x00000026   Code   RO          970    i.DS18B20_ReadByte  ds18b20.o
    0x08001ed4   0x08001ed4   0x0000001c   Code   RO          971    i.DS18B20_ReadPin   ds18b20.o
    0x08001ef0   0x08001ef0   0x00000060   Code   RO          972    i.DS18B20_ReadTemp  ds18b20.o
    0x08001f50   0x08001f50   0x00000046   Code   RO          973    i.DS18B20_Reset     ds18b20.o
    0x08001f96   0x08001f96   0x00000016   Code   RO          974    i.DS18B20_StartConvert  ds18b20.o
    0x08001fac   0x08001fac   0x00000038   Code   RO          975    i.DS18B20_WriteBit  ds18b20.o
    0x08001fe4   0x08001fe4   0x00000020   Code   RO          976    i.DS18B20_WriteByte  ds18b20.o
    0x08002004   0x08002004   0x00000024   Code   RO          977    i.DS18B20_WritePin  ds18b20.o
    0x08002028   0x08002028   0x0000000c   Code   RO         1371    i.ENC_GetCount      encoder.o
    0x08002034   0x08002034   0x000000b0   Code   RO         1372    i.ENC_Init          encoder.o
    0x080020e4   0x080020e4   0x0000000c   Code   RO         1373    i.ENC_Reset         encoder.o
    0x080020f0   0x080020f0   0x0000001c   Code   RO         1374    i.ENC_Z_IsPressed   encoder.o
    0x0800210c   0x0800210c   0x00000044   Code   RO         1050    i.EXTI0_IRQHandler  infrared.o
    0x08002150   0x08002150   0x0000001c   Code   RO          833    i.EXTI2_IRQHandler  gpio_in.o
    0x0800216c   0x0800216c   0x0000001c   Code   RO          834    i.EXTI3_IRQHandler  gpio_in.o
    0x08002188   0x08002188   0x0000003c   Code   RO         1375    i.EXTI9_5_IRQHandler  encoder.o
    0x080021c4   0x080021c4   0x0000000c   Code   RO         2589    i.EXTI_ClearITPendingBit  stm32f10x_exti.o
    0x080021d0   0x080021d0   0x00000028   Code   RO         2593    i.EXTI_GetITStatus  stm32f10x_exti.o
    0x080021f8   0x080021f8   0x00000094   Code   RO         2594    i.EXTI_Init         stm32f10x_exti.o
    0x0800228c   0x0800228c   0x000002f4   Code   RO            4    i.Exp10_Relay       main.o
    0x08002580   0x08002580   0x00000224   Code   RO            5    i.Exp11_DHT11       main.o
    0x080027a4   0x080027a4   0x000001d8   Code   RO            6    i.Exp12_Thermistor  main.o
    0x0800297c   0x0800297c   0x00000240   Code   RO            7    i.Exp13_DS18B20     main.o
    0x08002bbc   0x08002bbc   0x0000026c   Code   RO            8    i.Exp14_DA          main.o
    0x08002e28   0x08002e28   0x00000250   Code   RO            9    i.Exp15_RS232       main.o
    0x08003078   0x08003078   0x000001fc   Code   RO           10    i.Exp16_RS485       main.o
    0x08003274   0x08003274   0x00000288   Code   RO           11    i.Exp17_Infrared    main.o
    0x080034fc   0x080034fc   0x000001b4   Code   RO           12    i.Exp18_Encoder     main.o
    0x080036b0   0x080036b0   0x00000270   Code   RO           13    i.Exp18_StepperMotor  main.o
    0x08003920   0x08003920   0x00000144   Code   RO           14    i.Exp19_DCMotorPWM  main.o
    0x08003a64   0x08003a64   0x00000118   Code   RO           15    i.Exp1_LED_Flowing  main.o
    0x08003b7c   0x08003b7c   0x00000194   Code   RO           16    i.Exp20_Servo       main.o
    0x08003d10   0x08003d10   0x0000019c   Code   RO           17    i.Exp2_KeyPolling   main.o
    0x08003eac   0x08003eac   0x000001d4   Code   RO           18    i.Exp3_LightSensor  main.o
    0x08004080   0x08004080   0x0000014c   Code   RO           19    i.Exp4_USART1_Echo  main.o
    0x080041cc   0x080041cc   0x00000224   Code   RO           20    i.Exp5_TrafficLight  main.o
    0x080043f0   0x080043f0   0x000002a8   Code   RO           21    i.Exp6_LCD12864     main.o
    0x08004698   0x08004698   0x00000214   Code   RO           22    i.Exp7_CH451        main.o
    0x080048ac   0x080048ac   0x00000260   Code   RO           23    i.Exp8_IndependentKeys  main.o
    0x08004b0c   0x08004b0c   0x00000180   Code   RO           24    i.Exp9_DIPSwitch    main.o
    0x08004c8c   0x08004c8c   0x00000040   Code   RO         2657    i.GPIO_EXTILineConfig  stm32f10x_gpio.o
    0x08004ccc   0x08004ccc   0x00000116   Code   RO         2660    i.GPIO_Init         stm32f10x_gpio.o
    0x08004de2   0x08004de2   0x00000002   PAD
    0x08004de4   0x08004de4   0x00000090   Code   RO         2662    i.GPIO_PinRemapConfig  stm32f10x_gpio.o
    0x08004e74   0x08004e74   0x00000012   Code   RO         2664    i.GPIO_ReadInputDataBit  stm32f10x_gpio.o
    0x08004e86   0x08004e86   0x00000004   Code   RO         2667    i.GPIO_ResetBits    stm32f10x_gpio.o
    0x08004e8a   0x08004e8a   0x00000004   Code   RO         2668    i.GPIO_SetBits      stm32f10x_gpio.o
    0x08004e8e   0x08004e8e   0x00000054   Code   RO          835    i.IKEY_EXTI_DeInit  gpio_in.o
    0x08004ee2   0x08004ee2   0x00000002   PAD
    0x08004ee4   0x08004ee4   0x000000c0   Code   RO          836    i.IKEY_EXTI_Init    gpio_in.o
    0x08004fa4   0x08004fa4   0x00000044   Code   RO          837    i.IKEY_Init         gpio_in.o
    0x08004fe8   0x08004fe8   0x0000004c   Code   RO          838    i.IKEY_Read         gpio_in.o
    0x08005034   0x08005034   0x000000ee   Code   RO         1051    i.IR_Decode         infrared.o
    0x08005122   0x08005122   0x00000026   Code   RO         1052    i.IR_EXTI_Disable   infrared.o
    0x08005148   0x08005148   0x00000030   Code   RO         1053    i.IR_EXTI_Enable    infrared.o
    0x08005178   0x08005178   0x0000001c   Code   RO         1054    i.IR_InRange        infrared.o
    0x08005194   0x08005194   0x00000070   Code   RO         1055    i.IR_Init           infrared.o
    0x08005204   0x08005204   0x00000058   Code   RO         1056    i.IR_PulseWidth     infrared.o
    0x0800525c   0x0800525c   0x00000018   Code   RO         1057    i.IR_ReadPin        infrared.o
    0x08005274   0x08005274   0x00000024   Code   RO         1425    i.LCD12864_Backlight  lcd12864.o
    0x08005298   0x08005298   0x00000010   Code   RO         1426    i.LCD12864_Clear    lcd12864.o
    0x080052a8   0x080052a8   0x000000d0   Code   RO         1429    i.LCD12864_Init     lcd12864.o
    0x08005378   0x08005378   0x00000050   Code   RO         1430    i.LCD12864_SendByte  lcd12864.o
    0x080053c8   0x080053c8   0x00000024   Code   RO         1431    i.LCD12864_SetPos   lcd12864.o
    0x080053ec   0x080053ec   0x0000003c   Code   RO         1433    i.LCD12864_WriteCmd  lcd12864.o
    0x08005428   0x08005428   0x0000003c   Code   RO         1434    i.LCD12864_WriteData  lcd12864.o
    0x08005464   0x08005464   0x00000016   Code   RO         1435    i.LCD12864_WriteString  lcd12864.o
    0x0800547a   0x0800547a   0x00000002   PAD
    0x0800547c   0x0800547c   0x00000014   Code   RO          763    i.LED_AllOff        gpio_out.o
    0x08005490   0x08005490   0x00000038   Code   RO          765    i.LED_Init          gpio_out.o
    0x080054c8   0x080054c8   0x00000034   Code   RO          766    i.LED_Set           gpio_out.o
    0x080054fc   0x080054fc   0x00000020   Code   RO         1644    i.Light_Percent     sensor_adc.o
    0x0800551c   0x0800551c   0x000000a4   Code   RO         1575    i.Motor_Init        timer_pwm.o
    0x080055c0   0x080055c0   0x00000038   Code   RO         1576    i.Motor_SetDir      timer_pwm.o
    0x080055f8   0x080055f8   0x00000030   Code   RO         1577    i.Motor_SetSpeed    timer_pwm.o
    0x08005628   0x08005628   0x00000018   Code   RO         1578    i.Motor_Stop        timer_pwm.o
    0x08005640   0x08005640   0x00000070   Code   RO         2306    i.NVIC_Init         misc.o
    0x080056b0   0x080056b0   0x00000014   Code   RO         2307    i.NVIC_PriorityGroupConfig  misc.o
    0x080056c4   0x080056c4   0x00000020   Code   RO         2782    i.RCC_APB1PeriphClockCmd  stm32f10x_rcc.o
    0x080056e4   0x080056e4   0x00000020   Code   RO         2784    i.RCC_APB2PeriphClockCmd  stm32f10x_rcc.o
    0x08005704   0x08005704   0x00000020   Code   RO         2785    i.RCC_APB2PeriphResetCmd  stm32f10x_rcc.o
    0x08005724   0x08005724   0x000000d4   Code   RO         2792    i.RCC_GetClocksFreq  stm32f10x_rcc.o
    0x080057f8   0x080057f8   0x000000d0   Code   RO         1160    i.RS232_Init        rs232.o
    0x080058c8   0x080058c8   0x00000044   Code   RO         1161    i.RS232_ReadByte    rs232.o
    0x0800590c   0x0800590c   0x0000000c   Code   RO         1162    i.RS232_RxAvailable  rs232.o
    0x08005918   0x08005918   0x00000020   Code   RO         1163    i.RS232_SendByte    rs232.o
    0x08005938   0x08005938   0x00000016   Code   RO         1164    i.RS232_SendString  rs232.o
    0x0800594e   0x0800594e   0x00000002   PAD
    0x08005950   0x08005950   0x000000f0   Code   RO         1217    i.RS485_Init        rs485.o
    0x08005a40   0x08005a40   0x00000044   Code   RO         1218    i.RS485_ReadByte    rs485.o
    0x08005a84   0x08005a84   0x0000000c   Code   RO         1219    i.RS485_RxAvailable  rs485.o
    0x08005a90   0x08005a90   0x0000004c   Code   RO         1220    i.RS485_SendByte    rs485.o
    0x08005adc   0x08005adc   0x00000016   Code   RO         1221    i.RS485_SendString  rs485.o
    0x08005af2   0x08005af2   0x00000002   PAD
    0x08005af4   0x08005af4   0x00000014   Code   RO         1222    i.RS485_SetRX       rs485.o
    0x08005b08   0x08005b08   0x00000014   Code   RO         1223    i.RS485_SetTX       rs485.o
    0x08005b1c   0x08005b1c   0x00000040   Code   RO         1286    i.Relay_Init        relay.o
    0x08005b5c   0x08005b5c   0x0000003c   Code   RO         1287    i.Relay_Set         relay.o
    0x08005b98   0x08005b98   0x000000a6   Code   RO          326    i.RunExperiment     freertos_tasks.o
    0x08005c3e   0x08005c3e   0x00000002   PAD
    0x08005c40   0x08005c40   0x000000bc   Code   RO          839    i.SW_Init           gpio_in.o
    0x08005cfc   0x08005cfc   0x00000090   Code   RO          841    i.SW_ReadAll        gpio_in.o
    0x08005d8c   0x08005d8c   0x00000008   Code   RO         3751    i.SetSysClock       system_stm32f10x.o
    0x08005d94   0x08005d94   0x000000e0   Code   RO         3752    i.SetSysClockTo72   system_stm32f10x.o
    0x08005e74   0x08005e74   0x00000044   Code   RO         1322    i.Stepper_Init      stepper.o
    0x08005eb8   0x08005eb8   0x0000007c   Code   RO         1323    i.Stepper_Output    stepper.o
    0x08005f34   0x08005f34   0x000000b8   Code   RO         1324    i.Stepper_StepCCW   stepper.o
    0x08005fec   0x08005fec   0x000000b4   Code   RO         1325    i.Stepper_StepCW    stepper.o
    0x080060a0   0x080060a0   0x00000014   Code   RO         1326    i.Stepper_Stop      stepper.o
    0x080060b4   0x080060b4   0x00000060   Code   RO         3754    i.SystemInit        system_stm32f10x.o
    0x08006114   0x08006114   0x00000098   Code   RO         1579    i.TIM4_Servo_Init   timer_pwm.o
    0x080061ac   0x080061ac   0x0000002c   Code   RO         1580    i.TIM4_Servo_SetAngle  timer_pwm.o
    0x080061d8   0x080061d8   0x00000018   Code   RO         3008    i.TIM_Cmd           stm32f10x_tim.o
    0x080061f0   0x080061f0   0x00000098   Code   RO         3037    i.TIM_OC1Init       stm32f10x_tim.o
    0x08006288   0x08006288   0x000000a4   Code   RO         3042    i.TIM_OC2Init       stm32f10x_tim.o
    0x0800632c   0x0800632c   0x000000a0   Code   RO         3047    i.TIM_OC3Init       stm32f10x_tim.o
    0x080063cc   0x080063cc   0x00000004   Code   RO         3069    i.TIM_SetCompare1   stm32f10x_tim.o
    0x080063d0   0x080063d0   0x00000004   Code   RO         3070    i.TIM_SetCompare2   stm32f10x_tim.o
    0x080063d4   0x080063d4   0x00000004   Code   RO         3071    i.TIM_SetCompare3   stm32f10x_tim.o
    0x080063d8   0x080063d8   0x00000004   Code   RO         3073    i.TIM_SetCounter    stm32f10x_tim.o
    0x080063dc   0x080063dc   0x000000a4   Code   RO         3079    i.TIM_TimeBaseInit  stm32f10x_tim.o
    0x08006480   0x08006480   0x00000048   Code   RO         1119    i.TLC5615_Init      tlc5615.o
    0x080064c8   0x080064c8   0x00000074   Code   RO         1120    i.TLC5615_Send      tlc5615.o
    0x0800653c   0x0800653c   0x0000001a   Code   RO         1121    i.TLC5615_SetValue  tlc5615.o
    0x08006556   0x08006556   0x00000002   PAD
    0x08006558   0x08006558   0x0000003c   Code   RO          768    i.TrafficLight_Init  gpio_out.o
    0x08006594   0x08006594   0x0000006c   Code   RO          769    i.TrafficLight_Set  gpio_out.o
    0x08006600   0x08006600   0x0000005c   Code   RO         1224    i.UART4_IRQHandler  rs485.o
    0x0800665c   0x0800665c   0x0000005c   Code   RO          705    i.USART1_IRQHandler  usart_debug.o
    0x080066b8   0x080066b8   0x0000005c   Code   RO         1165    i.USART3_IRQHandler  rs232.o
    0x08006714   0x08006714   0x00000018   Code   RO         3556    i.USART_Cmd         stm32f10x_usart.o
    0x0800672c   0x0800672c   0x0000001a   Code   RO         3559    i.USART_GetFlagStatus  stm32f10x_usart.o
    0x08006746   0x08006746   0x00000054   Code   RO         3560    i.USART_GetITStatus  stm32f10x_usart.o
    0x0800679a   0x0800679a   0x0000004a   Code   RO         3562    i.USART_ITConfig    stm32f10x_usart.o
    0x080067e4   0x080067e4   0x000000d8   Code   RO         3563    i.USART_Init        stm32f10x_usart.o
    0x080068bc   0x080068bc   0x0000000c   Code   RO          706    i.USART_RX_Available  usart_debug.o
    0x080068c8   0x080068c8   0x00000014   Code   RO          707    i.USART_RX_DeInit   usart_debug.o
    0x080068dc   0x080068dc   0x0000001c   Code   RO          708    i.USART_RX_Flush    usart_debug.o
    0x080068f8   0x080068f8   0x00000030   Code   RO          709    i.USART_RX_Init     usart_debug.o
    0x08006928   0x08006928   0x00000044   Code   RO          710    i.USART_RX_Read     usart_debug.o
    0x0800696c   0x0800696c   0x0000000a   Code   RO         3570    i.USART_ReceiveData  stm32f10x_usart.o
    0x08006976   0x08006976   0x00000008   Code   RO         3573    i.USART_SendData    stm32f10x_usart.o
    0x0800697e   0x0800697e   0x00000002   PAD
    0x08006980   0x08006980   0x00000024   Code   RO           25    i.WKUP_Init         main.o
    0x080069a4   0x080069a4   0x00000018   Code   RO           26    i.WKUP_IsPressed    main.o
    0x080069bc   0x080069bc   0x00000028   Code   RO         3991    i.__ARM_fpclassify  m_ws.l(fpclassify.o)
    0x080069e4   0x080069e4   0x0000000e   Code   RO         3845    i._is_digit         c_w.l(__printf_wp.o)
    0x080069f2   0x080069f2   0x00000002   Code   RO          515    i._sys_exit         usart.o
    0x080069f4   0x080069f4   0x00000048   Code   RO          429    i.delay_ms          delay.o
    0x08006a3c   0x08006a3c   0x00000030   Code   RO         1695    i.delay_us          delay_us.o
    0x08006a6c   0x08006a6c   0x00000028   Code   RO         1696    i.delay_us_init     delay_us.o
    0x08006a94   0x08006a94   0x0000001c   Code   RO          516    i.fputc             usart.o
    0x08006ab0   0x08006ab0   0x00000064   Code   RO          327    i.freertos_init     freertos_tasks.o
    0x08006b14   0x08006b14   0x00000168   Code   RO           27    i.main              main.o
    0x08006c7c   0x08006c7c   0x00000098   Code   RO         2021    i.prvAddCurrentTaskToDelayedList  tasks.o
    0x08006d14   0x08006d14   0x000000b4   Code   RO         2022    i.prvAddNewTaskToReadyList  tasks.o
    0x08006dc8   0x08006dc8   0x00000064   Code   RO         2023    i.prvCheckTasksWaitingTermination  tasks.o
    0x08006e2c   0x08006e2c   0x0000002a   Code   RO         1885    i.prvCopyDataFromQueue  queue.o
    0x08006e56   0x08006e56   0x0000006a   Code   RO         1886    i.prvCopyDataToQueue  queue.o
    0x08006ec0   0x08006ec0   0x00000012   Code   RO         2024    i.prvDeleteTCB      tasks.o
    0x08006ed2   0x08006ed2   0x00000002   PAD
    0x08006ed4   0x08006ed4   0x00000038   Code   RO         1731    i.prvHeapInit       heap_2.o
    0x08006f0c   0x08006f0c   0x00000028   Code   RO         2025    i.prvIdleTask       tasks.o
    0x08006f34   0x08006f34   0x00000026   Code   RO         1887    i.prvInitialiseNewQueue  queue.o
    0x08006f5a   0x08006f5a   0x00000080   Code   RO         2026    i.prvInitialiseNewTask  tasks.o
    0x08006fda   0x08006fda   0x00000002   PAD
    0x08006fdc   0x08006fdc   0x00000068   Code   RO         2027    i.prvInitialiseTaskLists  tasks.o
    0x08007044   0x08007044   0x0000001a   Code   RO         1888    i.prvIsQueueEmpty   queue.o
    0x0800705e   0x0800705e   0x0000001e   Code   RO         1889    i.prvIsQueueFull    queue.o
    0x0800707c   0x0800707c   0x00000034   Code   RO         2028    i.prvResetNextTaskUnblockTime  tasks.o
    0x080070b0   0x080070b0   0x00000016   Code   RO         1815    i.prvTaskExitError  port.o
    0x080070c6   0x080070c6   0x0000007e   Code   RO         1890    i.prvUnlockQueue    queue.o
    0x08007144   0x08007144   0x000000b8   Code   RO         1732    i.pvPortMalloc      heap_2.o
    0x080071fc   0x080071fc   0x00000024   Code   RO         1816    i.pxPortInitialiseStack  port.o
    0x08007220   0x08007220   0x00000080   Code   RO          517    i.usart_init        usart.o
    0x080072a0   0x080072a0   0x00000028   Code   RO         1778    i.uxListRemove      list.o
    0x080072c8   0x080072c8   0x00000070   Code   RO          328    i.vControlTask      freertos_tasks.o
    0x08007338   0x08007338   0x0000005c   Code   RO          329    i.vExperimentTask   freertos_tasks.o
    0x08007394   0x08007394   0x0000001a   Code   RO         1779    i.vListInitialise   list.o
    0x080073ae   0x080073ae   0x00000006   Code   RO         1780    i.vListInitialiseItem  list.o
    0x080073b4   0x080073b4   0x00000034   Code   RO         1781    i.vListInsert       list.o
    0x080073e8   0x080073e8   0x00000018   Code   RO         1782    i.vListInsertEnd    list.o
    0x08007400   0x08007400   0x00000024   Code   RO         1818    i.vPortEnterCritical  port.o
    0x08007424   0x08007424   0x00000020   Code   RO         1819    i.vPortExitCritical  port.o
    0x08007444   0x08007444   0x00000040   Code   RO         1733    i.vPortFree         heap_2.o
    0x08007484   0x08007484   0x00000014   Code   RO         1820    i.vPortSetupTimerInterrupt  port.o
    0x08007498   0x08007498   0x00000034   Code   RO         2035    i.vTaskDelay        tasks.o
    0x080074cc   0x080074cc   0x0000000c   Code   RO         2039    i.vTaskMissedYield  tasks.o
    0x080074d8   0x080074d8   0x00000020   Code   RO         2041    i.vTaskPlaceOnEventList  tasks.o
    0x080074f8   0x080074f8   0x00000018   Code   RO         2045    i.vTaskSetTimeOutState  tasks.o
    0x08007510   0x08007510   0x00000064   Code   RO         2046    i.vTaskStartScheduler  tasks.o
    0x08007574   0x08007574   0x00000010   Code   RO         2048    i.vTaskSuspendAll   tasks.o
    0x08007584   0x08007584   0x00000060   Code   RO         2049    i.vTaskSwitchContext  tasks.o
    0x080075e4   0x080075e4   0x00000034   Code   RO         1821    i.xPortStartScheduler  port.o
    0x08007618   0x08007618   0x00000034   Code   RO         1822    i.xPortSysTickHandler  port.o
    0x0800764c   0x0800764c   0x00000038   Code   RO         1895    i.xQueueGenericCreate  queue.o
    0x08007684   0x08007684   0x0000013c   Code   RO         1896    i.xQueueGenericReceive  queue.o
    0x080077c0   0x080077c0   0x00000080   Code   RO         1897    i.xQueueGenericReset  queue.o
    0x08007840   0x08007840   0x00000118   Code   RO         1898    i.xQueueGenericSend  queue.o
    0x08007958   0x08007958   0x0000005c   Code   RO         2050    i.xTaskCheckForTimeOut  tasks.o
    0x080079b4   0x080079b4   0x00000060   Code   RO         2051    i.xTaskCreate       tasks.o
    0x08007a14   0x08007a14   0x0000011c   Code   RO         2056    i.xTaskIncrementTick  tasks.o
    0x08007b30   0x08007b30   0x00000080   Code   RO         2059    i.xTaskRemoveFromEventList  tasks.o
    0x08007bb0   0x08007bb0   0x000000e8   Code   RO         2061    i.xTaskResumeAll    tasks.o
    0x08007c98   0x08007c98   0x0000002c   Code   RO         3987    locale$$code        c_w.l(lc_numeric_c.o)
    0x08007cc4   0x08007cc4   0x0000000c   Code   RO         3924    x$fpl$dretinf       fz_ws.l(dretinf.o)
    0x08007cd0   0x08007cd0   0x00000056   Code   RO         3884    x$fpl$f2d           fz_ws.l(f2d.o)
    0x08007d26   0x08007d26   0x00000002   PAD
    0x08007d28   0x08007d28   0x00000184   Code   RO         3887    x$fpl$fdiv          fz_ws.l(fdiv.o)
    0x08007eac   0x08007eac   0x00000026   Code   RO         3894    x$fpl$ffltu         fz_ws.l(fflt_clz.o)
    0x08007ed2   0x08007ed2   0x00000002   PAD
    0x08007ed4   0x08007ed4   0x00000102   Code   RO         3900    x$fpl$fmul          fz_ws.l(fmul.o)
    0x08007fd6   0x08007fd6   0x0000008c   Code   RO         3926    x$fpl$fnaninf       fz_ws.l(fnaninf.o)
    0x08008062   0x08008062   0x0000000a   Code   RO         3928    x$fpl$fretinf       fz_ws.l(fretinf.o)
    0x0800806c   0x0800806c   0x00000004   Code   RO         3902    x$fpl$printf1       fz_ws.l(printf1.o)
    0x08008070   0x08008070   0x00000000   Code   RO         3930    x$fpl$usenofp       fz_ws.l(usenofp.o)
    0x08008070   0x08008070   0x00000010   Data   RO          770    .constdata          gpio_out.o
    0x08008080   0x08008080   0x00000008   Data   RO         1327    .constdata          stepper.o
    0x08008088   0x08008088   0x00000004   Data   RO         1436    .constdata          lcd12864.o
    0x0800808c   0x0800808c   0x00000028   Data   RO         3818    .constdata          c_w.l(_printf_hex_int.o)
    0x080080b4   0x080080b4   0x00000011   Data   RO         3853    .constdata          c_w.l(__printf_flags_ss_wp.o)
    0x080080c5   0x080080c5   0x00000003   PAD
    0x080080c8   0x080080c8   0x00000094   Data   RO         3958    .constdata          c_w.l(bigflt0.o)
    0x0800815c   0x0800815c   0x00000020   Data   RO         4128    Region$$Table       anon$$obj.o
    0x0800817c   0x0800817c   0x0000001c   Data   RO         3986    locale$$data        c_w.l(lc_numeric_c.o)


    Execution Region RW_IRAM1 (Exec base: 0x20000000, Load base: 0x08008198, Size: 0x00004ed8, Max: 0x00010000, ABSOLUTE)

    Exec Addr    Load Addr    Size         Type   Attr      Idx    E Section Name        Object

    0x20000000   0x08008198   0x00000010   Data   RW          330    .data               freertos_tasks.o
    0x20000010   0x080081a8   0x00000004   Data   RW          518    .data               usart.o
    0x20000014   0x080081ac   0x00000003   Data   RW          712    .data               usart_debug.o
    0x20000017   0x080081af   0x00000004   Data   RW          842    .data               gpio_in.o
    0x2000001b   0x080081b3   0x00000001   Data   RW         1058    .data               infrared.o
    0x2000001c   0x080081b4   0x00000003   Data   RW         1167    .data               rs232.o
    0x2000001f   0x080081b7   0x00000003   Data   RW         1226    .data               rs485.o
    0x20000022   0x080081ba   0x00000002   PAD
    0x20000024   0x080081bc   0x00000004   Data   RW         1376    .data               encoder.o
    0x20000028   0x080081c0   0x00000002   Data   RW         1581    .data               timer_pwm.o
    0x2000002a   0x080081c2   0x00000002   PAD
    0x2000002c   0x080081c4   0x00000018   Data   RW         1737    .data               heap_2.o
    0x20000044   0x080081dc   0x00000004   Data   RW         1823    .data               port.o
    0x20000048   0x080081e0   0x0000003c   Data   RW         2064    .data               tasks.o
    0x20000084   0x0800821c   0x00000014   Data   RW         2812    .data               stm32f10x_rcc.o
    0x20000098   0x08008230   0x00000014   Data   RW         3755    .data               system_stm32f10x.o
    0x200000ac        -       0x00000100   Zero   RW          711    .bss                usart_debug.o
    0x200001ac        -       0x00000100   Zero   RW         1166    .bss                rs232.o
    0x200002ac        -       0x00000100   Zero   RW         1225    .bss                rs485.o
    0x200003ac        -       0x00004400   Zero   RW         1736    .bss                heap_2.o
    0x200047ac        -       0x000000c8   Zero   RW         2063    .bss                tasks.o
    0x20004874        -       0x00000060   Zero   RW         3994    .bss                c_w.l(libspace.o)
    0x200048d4   0x08008244   0x00000004   PAD
    0x200048d8        -       0x00000200   Zero   RW         3742    HEAP                startup_stm32f10x_hd.o
    0x20004ad8        -       0x00000400   Zero   RW         3741    STACK               startup_stm32f10x_hd.o


==============================================================================

Image component sizes


      Code (inc. data)   RO Data    RW Data    ZI Data      Debug   Object Name

       570         24          0          0          0       3376   ch451.o
        72          6          0          0          0        547   delay.o
        88         24          0          0          0        923   delay_us.o
       478         20          0          0          0       3606   dht11.o
       518         22          0          0          0       5916   ds18b20.o
       288         40          0          4          0       2909   encoder.o
       470        118          0         16          0       3052   freertos_tasks.o
       808         76          0          4          0       4840   gpio_in.o
       328         36         16          0          0       3530   gpio_out.o
       304         40          0         24      17408       4855   heap_2.o
       644         38          0          1          0       5366   infrared.o
       518         36          4          0          0       4455   lcd12864.o
       148          0          0          0          0       3014   list.o
     11172       4762          0          0          0     299759   main.o
       132         22          0          0          0       1731   misc.o
       400         50          0          4          0       8612   port.o
      1148         14          0          0          0      16778   queue.o
       124          8          0          0          0       1389   relay.o
       434         68          0          3        256       3730   rs232.o
       550         82          0          3        256       4697   rs485.o
       312         18          0          0          0       2274   sensor_adc.o
        64         26        304          0       1536        816   startup_stm32f10x_hd.o
       576        210          8          0          0       3137   stepper.o
       486         24          0          0          0       9234   stm32f10x_adc.o
       200         18          0          0          0       2360   stm32f10x_exti.o
       512         10          0          0          0       5508   stm32f10x_gpio.o
       308         38          0         20          0       5287   stm32f10x_rcc.o
       680         82          0          0          0       6586   stm32f10x_tim.o
       442          6          0          0          0       6621   stm32f10x_usart.o
       328         28          0         20          0       2329   system_stm32f10x.o
      1938        314          0         60        200      23957   tasks.o
       488         50          0          2          0       3442   timer_pwm.o
       214         10          0          0          0       1534   tlc5615.o
       158         14          0          4          0       3319   usart.o
       268         58          0          3        256       3432   usart_debug.o

    ----------------------------------------------------------------------
     26202       6392        364        172      19912     462921   Object Totals
         0          0         32          0          0          0   (incl. Generated)
        34          0          0          4          0          0   (incl. Padding)

    ----------------------------------------------------------------------

      Code (inc. data)   RO Data    RW Data    ZI Data      Debug   Library Member Name

         8          0          0          0          0         68   __main.o
       392          4         17          0          0         92   __printf_flags_ss_wp.o
        14          0          0          0          0         68   __printf_wp.o
         0          0          0          0          0          0   __rtentry.o
        12          0          0          0          0          0   __rtentry2.o
         6          0          0          0          0          0   __rtentry4.o
        52          8          0          0          0          0   __scatter.o
        26          0          0          0          0          0   __scatter_copy.o
        28          0          0          0          0          0   __scatter_zi.o
         6          0          0          0          0          0   _printf_c.o
        44          0          0          0          0        108   _printf_char.o
        48          6          0          0          0         96   _printf_char_common.o
        36          4          0          0          0         80   _printf_char_file.o
         6          0          0          0          0          0   _printf_d.o
       120         16          0          0          0         92   _printf_dec.o
         6          0          0          0          0          0   _printf_f.o
      1054          0          0          0          0        216   _printf_fp_dec.o
       128         16          0          0          0         84   _printf_fp_infnan.o
        88          4         40          0          0         88   _printf_hex_int.o
       178          0          0          0          0         88   _printf_intcommon.o
        78          0          0          0          0        108   _printf_pad.o
         0          0          0          0          0          0   _printf_percent.o
         4          0          0          0          0          0   _printf_percent_end.o
         6          0          0          0          0          0   _printf_s.o
        82          0          0          0          0         80   _printf_str.o
         6          0          0          0          0          0   _printf_u.o
         6          0          0          0          0          0   _printf_x.o
        10          0          0          0          0         68   _sputc.o
       228          4        148          0          0         96   bigflt0.o
      1936        128          0          0          0        672   btod.o
        18          0          0          0          0         80   exit.o
         8          0          0          0          0         68   ferror.o
         6          0          0          0          0        152   heapauxi.o
        44         10         28          0          0         76   lc_numeric_c.o
         2          0          0          0          0          0   libinit.o
        18          0          0          0          0          0   libinit2.o
         2          0          0          0          0          0   libshutdown.o
         2          0          0          0          0          0   libshutdown2.o
         8          4          0          0         96         68   libspace.o
       138          0          0          0          0         80   lludiv10.o
        24          4          0          0          0         84   noretval__2printf.o
        40          6          0          0          0         84   noretval__2sprintf.o
         8          4          0          0          0         68   rt_locale_intlibspace.o
       138          0          0          0          0         68   rt_memcpy_v6.o
       100          0          0          0          0         80   rt_memcpy_w.o
         2          0          0          0          0          0   rtexit.o
        10          0          0          0          0          0   rtexit2.o
       128          0          0          0          0         68   strcmpv7m.o
        74          0          0          0          0         80   sys_stackheap_outer.o
         2          0          0          0          0         68   use_no_semi.o
         2          0          0          0          0         68   use_no_semi_2.o
        12          0          0          0          0         68   dretinf.o
        86          4          0          0          0         84   f2d.o
       388         76          0          0          0         96   fdiv.o
        38          0          0          0          0         68   fflt_clz.o
       258          4          0          0          0         84   fmul.o
       140          4          0          0          0         84   fnaninf.o
        10          0          0          0          0         68   fretinf.o
         4          0          0          0          0         68   printf1.o
         0          0          0          0          0          0   usenofp.o
        40          0          0          0          0         68   fpclassify.o

    ----------------------------------------------------------------------
      6374        306        236          0        100       3984   Library Totals
        16          0          3          0          4          0   (incl. Padding)

    ----------------------------------------------------------------------

      Code (inc. data)   RO Data    RW Data    ZI Data      Debug   Library Name

      5382        218        233          0         96       3296   c_w.l
       936         88          0          0          0        620   fz_ws.l
        40          0          0          0          0         68   m_ws.l

    ----------------------------------------------------------------------
      6374        306        236          0        100       3984   Library Totals

    ----------------------------------------------------------------------

==============================================================================


      Code (inc. data)   RO Data    RW Data    ZI Data      Debug   

     32576       6698        600        172      20012     453121   Grand Totals
     32576       6698        600        172      20012     453121   ELF Image Totals
     32576       6698        600        172          0          0   ROM Totals

==============================================================================

    Total RO  Size (Code + RO Data)                33176 (  32.40kB)
    Total RW  Size (RW Data + ZI Data)             20184 (  19.71kB)
    Total ROM Size (Code + RO Data + RW Data)      33348 (  32.57kB)

==============================================================================

